(lp0
(lp1
(lp2
F18.547691
aF73.853404
aF0.0
aa(lp3
F18.5491988
aF73.85474669999999
aF60.0
aa(lp4
F18.5490823
aF73.8511764
aF120.0
aa(lp5
F18.5449733
aF73.83919829999999
aF300.0
aa(lp6
F18.5446039
aF73.83882489999999
aF360.0
aa(lp7
F18.5386332
aF73.8340431
aF480.0
aa(lp8
F18.5407884
aF73.8307769
aF540.0
aa(lp9
F18.5418784
aF73.8290671
aF600.0
aa(lp10
F18.542053
aF73.8284666
aF660.0
aa(lp11
F18.5416942
aF73.825119
aF720.0
aaa(lp12
(lp13
F18.543511
aF73.818567
aF0.0
aa(lp14
F18.5435611
aF73.81720709999999
aF60.0
aa(lp15
F18.5470963
aF73.8171508
aF120.0
aa(lp16
F18.5499934
aF73.8095723
aF240.0
aa(lp17
F18.5548542
aF73.8092913
aF360.0
aa(lp18
F18.5548656
aF73.8089596
aF420.0
aaa(lp19
(lp20
F18.552189
aF73.856771
aF0.0
aa(lp21
F18.5442898
aF73.851788
aF120.0
aa(lp22
F18.5334774
aF73.8524661
aF240.0
aa(lp23
F18.5305441
aF73.8551446
aF300.0
aa(lp24
F18.5298491
aF73.8632063
aF420.0
aa(lp25
F18.5297943
aF73.8730224
aF540.0
aa(lp26
F18.5349575
aF73.8716457
aF720.0
aa(lp27
F18.535593
aF73.87259449999999
aF780.0
aa(lp28
F18.5355987
aF73.87125759999999
aF840.0
aaa(lp29
(lp30
F18.505457
aF73.855909
aF0.0
aa(lp31
F18.5051785
aF73.8560972
aF60.0
aa(lp32
F18.5045091
aF73.85558569999999
aF120.0
aa(lp33
F18.5047977
aF73.8551988
aF180.0
aa(lp34
F18.5043872
aF73.8548589
aF240.0
aa(lp35
F18.504057
aF73.8552754
aF300.0
aa(lp36
F18.5029098
aF73.8454312
aF600.0
aa(lp37
F18.5012384
aF73.8457031
aF660.0
aa(lp38
F18.4877877
aF73.8291869
aF960.0
aa(lp39
F18.4889724
aF73.82663
aF1020.0
aa(lp40
F18.4898613
aF73.82715329999999
aF1080.0
aa(lp41
F18.4901484
aF73.8245839
aF1140.0
aa(lp42
F18.4915926
aF73.82491379999999
aF1200.0
aa(lp43
F18.4919062
aF73.8236671
aF1260.0
aa(lp44
F18.4924934
aF73.8238294
aF1320.0
aa(lp45
F18.4924587
aF73.8239917
aF1380.0
aaa(lp46
(lp47
F18.543785
aF73.896521
aF0.0
aa(lp48
F18.5523941
aF73.8973852
aF120.0
aa(lp49
F18.5448717
aF73.88477139999999
aF360.0
aa(lp50
F18.5416107
aF73.8853852
aF420.0
aa(lp51
F18.5352574
aF73.8856752
aF540.0
aa(lp52
F18.5231781
aF73.88798659999999
aF720.0
aa(lp53
F18.5232894
aF73.88600550000001
aF780.0
aa(lp54
F18.5222723
aF73.885468
aF840.0
aa(lp55
F18.5191529
aF73.8871936
aF900.0
aa(lp56
F18.5178627
aF73.8860795
aF960.0
aaa(lp57
(lp58
F18.530981
aF73.806477
aF0.0
aa(lp59
F18.5327537
aF73.80188059999999
aF120.0
aa(lp60
F18.5361506
aF73.80201699999999
aF240.0
aa(lp61
F18.5361316
aF73.8019273
aF300.0
aa(lp62
F18.5378655
aF73.80281049999999
aF360.0
aa(lp63
F18.542234
aF73.8285112
aF780.0
aa(lp64
F18.5409727
aF73.8306779
aF840.0
aa(lp65
F18.5203427
aF73.83044869999999
aF1260.0
aa(lp66
F18.5153514
aF73.82884
aF1380.0
aa(lp67
F18.5139463
aF73.8361164
aF1500.0
aa(lp68
F18.5093814
aF73.8420388
aF1680.0
aa(lp69
F18.5095797
aF73.8435159
aF1740.0
aa(lp70
F18.5032651
aF73.8453598
aF1920.0
aa(lp71
F18.5043624
aF73.8506755
aF2040.0
aa(lp72
F18.5012106
aF73.85077179999999
aF2100.0
aa(lp73
F18.4979585
aF73.8510759
aF2160.0
aa(lp74
F18.4926564
aF73.84988349999999
aF2280.0
aa(lp75
F18.4926762
aF73.84845349999999
aF2340.0
aa(lp76
F18.4963947
aF73.8492279
aF2400.0
aa(lp77
F18.4980952
aF73.8496194
aF2460.0
aaa(lp78
(lp79
F18.501568
aF73.85848
aF0.0
aa(lp80
F18.5007893
aF73.8584766
aF60.0
aa(lp81
F18.5013094
aF73.8546829
aF180.0
aa(lp82
F18.5013275
aF73.85401759999999
aF240.0
aa(lp83
F18.4997356
aF73.8539424
aF300.0
aa(lp84
F18.5011289
aF73.84571919999999
aF480.0
aa(lp85
F18.5050683
aF73.8448674
aF600.0
aa(lp86
F18.5046291
aF73.8381163
aF780.0
aa(lp87
F18.504643
aF73.8339567
aF840.0
aa(lp88
F18.5068835
aF73.83227699999999
aF960.0
aa(lp89
F18.5076179
aF73.829399
aF1020.0
aa(lp90
F18.5068136
aF73.8276525
aF1080.0
aa(lp91
F18.5066045
aF73.82400559999999
aF1140.0
aa(lp92
F18.5085587
aF73.82234679999999
aF1200.0
aa(lp93
F18.5080818
aF73.8211053
aF1260.0
aaa(lp94
(lp95
F18.556574
aF73.884234
aF0.0
aa(lp96
F18.5552648
aF73.88120649999999
aF60.0
aa(lp97
F18.5501375
aF73.8787437
aF180.0
aa(lp98
F18.531965
aF73.8538019
aF600.0
aa(lp99
F18.5304493
aF73.8552138
aF660.0
aa(lp100
F18.5272999
aF73.8511517
aF780.0
aa(lp101
F18.522846
aF73.848166
aF900.0
aa(lp102
F18.5160815
aF73.8425117
aF1080.0
aa(lp103
F18.5146961
aF73.84241089999999
aF1140.0
aa(lp104
F18.5068136
aF73.8276525
aF1500.0
aa(lp105
F18.5066045
aF73.82400559999999
aF1560.0
aa(lp106
F18.5081168
aF73.8092831
aF1800.0
aa(lp107
F18.5069875
aF73.8094553
aF1860.0
aaa(lp108
(lp109
F18.493592
aF73.901552
aF0.0
aa(lp110
F18.4946174
aF73.9017921
aF60.0
aa(lp111
F18.4976063
aF73.8952245
aF240.0
aa(lp112
F18.4961006
aF73.89481719999999
aF300.0
aa(lp113
F18.4989538
aF73.89547189999999
aF360.0
aa(lp114
F18.5064942
aF73.884304
aF600.0
aa(lp115
F18.502892
aF73.8788958
aF720.0
aa(lp116
F18.5018251
aF73.8727919
aF840.0
aa(lp117
F18.5004993
aF73.86669289999999
aF900.0
aa(lp118
F18.5005346
aF73.8585892
aF1080.0
aa(lp119
F18.5013094
aF73.8546829
aF1200.0
aa(lp120
F18.5013275
aF73.85401759999999
aF1260.0
aa(lp121
F18.4997356
aF73.8539424
aF1320.0
aa(lp122
F18.5011289
aF73.84571919999999
aF1500.0
aa(lp123
F18.5050683
aF73.8448674
aF1620.0
aa(lp124
F18.5048522
aF73.8431568
aF1680.0
aa(lp125
F18.5052758
aF73.8431846
aF1740.0
aaa(lp126
(lp127
F18.546069
aF73.873308
aF0.0
aa(lp128
F18.544919
aF73.8731277
aF60.0
aa(lp129
F18.5447449
aF73.8733646
aF120.0
aa(lp130
F18.5427835
aF73.8712644
aF180.0
aa(lp131
F18.5413557
aF73.870091
aF240.0
aa(lp132
F18.5446192
aF73.8768068
aF360.0
aa(lp133
F18.5452353
aF73.88362149999999
aF480.0
aa(lp134
F18.5451136
aF73.88477739999999
aF540.0
aa(lp135
F18.5448717
aF73.88477139999999
aF600.0
aa(lp136
F18.5416107
aF73.8853852
aF660.0
aa(lp137
F18.5352574
aF73.8856752
aF780.0
aa(lp138
F18.5231781
aF73.88798659999999
aF960.0
aa(lp139
F18.5231786
aF73.88886670000001
aF1020.0
aa(lp140
F18.5213793
aF73.8909102
aF1080.0
aa(lp141
F18.5102009
aF73.8888924
aF1260.0
aa(lp142
F18.5087861
aF73.89003770000001
aF1320.0
aaa(lp143
(lp144
F18.510769
aF73.848127
aF0.0
aa(lp145
F18.5107829
aF73.84878290000002
aF60.0
aa(lp146
F18.5086936
aF73.8491124
aF120.0
aa(lp147
F18.5010322
aF73.8584927
aF480.0
aa(lp148
F18.5009066
aF73.8584794
aF540.0
aa(lp149
F18.5005577
aF73.8666047
aF720.0
aa(lp150
F18.5019152
aF73.8728198
aF780.0
aa(lp151
F18.5028422
aF73.8786532
aF900.0
aa(lp152
F18.506985
aF73.8791564
aF1020.0
aa(lp153
F18.5065654
aF73.88166249999999
aF1080.0
aa(lp154
F18.5002526
aF73.8839804
aF1200.0
aa(lp155
F18.4989748
aF73.88501649999999
aF1260.0
aa(lp156
F18.4989144
aF73.88771659999999
aF1320.0
aa(lp157
F18.499262
aF73.8881914
aF1380.0
aaa(lp158
(lp159
F18.551992
aF73.893076
aF0.0
aa(lp160
F18.5524872
aF73.8928408
aF60.0
aa(lp161
F18.5526312
aF73.8896524
aF120.0
aa(lp162
F18.5528624
aF73.8797049
aF300.0
aa(lp163
F18.5501375
aF73.8787437
aF360.0
aa(lp164
F18.531965
aF73.8538019
aF780.0
aa(lp165
F18.5304493
aF73.8552138
aF840.0
aa(lp166
F18.5272999
aF73.8511517
aF960.0
aa(lp167
F18.522846
aF73.848166
aF1080.0
aa(lp168
F18.5163005
aF73.8426563
aF1260.0
aa(lp169
F18.5160951
aF73.8433263
aF1320.0
aa(lp170
F18.5158897
aF73.84321489999999
aF1380.0
aa(lp171
F18.5158072
aF73.8434218
aF1440.0
aaa(lp172
(lp173
F18.55684
aF73.874331
aF0.0
aa(lp174
F18.5569066
aF73.87538169999999
aF60.0
aa(lp175
F18.5553042
aF73.8747869
aF120.0
aa(lp176
F18.5486903
aF73.87124179999999
aF240.0
aa(lp177
F18.5452353
aF73.88362149999999
aF480.0
aa(lp178
F18.5451136
aF73.88477739999999
aF540.0
aa(lp179
F18.5448717
aF73.88477139999999
aF600.0
aa(lp180
F18.5416107
aF73.8853852
aF660.0
aa(lp181
F18.5352574
aF73.8856752
aF780.0
aa(lp182
F18.5231781
aF73.88798659999999
aF960.0
aa(lp183
F18.5231786
aF73.88886670000001
aF1020.0
aa(lp184
F18.5066199
aF73.9010198
aF1380.0
aa(lp185
F18.5008352
aF73.90062660000001
aF1560.0
aa(lp186
F18.500718
aF73.9017405
aF1620.0
aa(lp187
F18.4983129
aF73.9016781
aF1680.0
aa(lp188
F18.4982565
aF73.902168
aF1740.0
aa(lp189
F18.4977908
aF73.9024287
aF1800.0
aaa(lp190
(lp191
F18.543972
aF73.878219
aF0.0
aa(lp192
F18.5448233
aF73.87707999999999
aF60.0
aa(lp193
F18.531965
aF73.8538019
aF360.0
aa(lp194
F18.5304493
aF73.8552138
aF420.0
aa(lp195
F18.527542
aF73.8514185
aF540.0
aa(lp196
F18.5275652
aF73.8507529
aF600.0
aa(lp197
F18.5297581
aF73.8498142
aF660.0
aa(lp198
F18.5307446
aF73.8473852
aF720.0
aa(lp199
F18.5320978
aF73.8428204
aF780.0
aa(lp200
F18.5407884
aF73.8307769
aF1020.0
aa(lp201
F18.5420803
aF73.8289324
aF1080.0
aa(lp202
F18.5503883
aF73.80744949999999
aF1380.0
aa(lp203
F18.5494713
aF73.8064067
aF1440.0
aa(lp204
F18.5456254
aF73.80523
aF1500.0
aaa(lp205
(lp206
F18.532453
aF73.892485
aF0.0
aa(lp207
F18.5330055
aF73.885828
aF120.0
aa(lp208
F18.5321279
aF73.88562329999999
aF180.0
aa(lp209
F18.5359204
aF73.8838255
aF300.0
aa(lp210
F18.5347242
aF73.87965539999999
aF360.0
aa(lp211
F18.5307515
aF73.8756569
aF480.0
aa(lp212
F18.529748
aF73.857365
aF780.0
aa(lp213
F18.5295399
aF73.85318749999999
aF840.0
aa(lp214
F18.5272999
aF73.8511517
aF900.0
aa(lp215
F18.5249709
aF73.8495336
aF960.0
aa(lp216
F18.5269352
aF73.84220010000001
aF1140.0
aa(lp217
F18.5271748
aF73.8377702
aF1260.0
aa(lp218
F18.5266724
aF73.83745139999999
aF1320.0
aa(lp219
F18.5252743
aF73.8297413
aF1500.0
aa(lp220
F18.5241651
aF73.827727
aF1560.0
aa(lp221
F18.5232264
aF73.8271609
aF1620.0
aaa(lp222
(lp223
F18.533379
aF73.880594
aF0.0
aa(lp224
F18.5331097
aF73.8793354
aF60.0
aa(lp225
F18.534183
aF73.8796036
aF120.0
aa(lp226
F18.5341852
aF73.8792726
aF180.0
aa(lp227
F18.5307515
aF73.8756569
aF300.0
aa(lp228
F18.5302683
aF73.8551477
aF600.0
aa(lp229
F18.5490423
aF73.85107889999999
aF900.0
aa(lp230
F18.547227
aF73.8479475
aF960.0
aaa(lp231
(lp232
F18.511804
aF73.837033
aF0.0
aa(lp233
F18.5116913
aF73.83728540000001
aF60.0
aa(lp234
F18.5146342
aF73.8423354
aF180.0
aa(lp235
F18.5269352
aF73.84220010000001
aF480.0
aa(lp236
F18.5280459
aF73.84281250000001
aF540.0
aa(lp237
F18.5313611
aF73.8446596
aF600.0
aa(lp238
F18.5302272
aF73.849789
aF720.0
aa(lp239
F18.5298512
aF73.8511255
aF780.0
aa(lp240
F18.5303759
aF73.8550638
aF840.0
aa(lp241
F18.5317982
aF73.8536286
aF900.0
aa(lp242
F18.5528464
aF73.87960559999999
aF1320.0
aa(lp243
F18.5552578
aF73.88111099999999
aF1380.0
aa(lp244
F18.5552648
aF73.88120649999999
aF1440.0
aa(lp245
F18.5563866
aF73.8841005
aF1500.0
aaa(lp246
(lp247
F18.538894
aF73.884492
aF0.0
aa(lp248
F18.5393859
aF73.8853733
aF60.0
aa(lp249
F18.5352574
aF73.8856752
aF180.0
aa(lp250
F18.5231781
aF73.88798659999999
aF360.0
aa(lp251
F18.5232894
aF73.88600550000001
aF420.0
aa(lp252
F18.5222723
aF73.885468
aF480.0
aa(lp253
F18.51894
aF73.8823488
aF540.0
aa(lp254
F18.5206564
aF73.8791044
aF600.0
aa(lp255
F18.5201718
aF73.8788972
aF660.0
aaa(lp256
(lp257
F18.520461
aF73.883311
aF0.0
aa(lp258
F18.5220182
aF73.8851336
aF60.0
aa(lp259
F18.5184716
aF73.8833085
aF120.0
aa(lp260
F18.5144136
aF73.8835945
aF180.0
aa(lp261
F18.5137031
aF73.8799714
aF240.0
aa(lp262
F18.5065654
aF73.88166249999999
aF420.0
aa(lp263
F18.5049343
aF73.88231069999999
aF480.0
aa(lp264
F18.502892
aF73.8788958
aF540.0
aa(lp265
F18.5018251
aF73.8727919
aF660.0
aa(lp266
F18.5004993
aF73.86669289999999
aF720.0
aa(lp267
F18.5005346
aF73.8585892
aF900.0
aa(lp268
F18.5013094
aF73.8546829
aF1020.0
aa(lp269
F18.5013275
aF73.85401759999999
aF1080.0
aa(lp270
F18.4997356
aF73.8539424
aF1140.0
aa(lp271
F18.4973765
aF73.85417869999999
aF1200.0
aa(lp272
F18.4974723
aF73.8522615
aF1260.0
aa(lp273
F18.4971068
aF73.8521366
aF1320.0
aaa(lp274
(lp275
F18.508327
aF73.847404
aF0.0
aa(lp276
F18.5083062
aF73.8465275
aF60.0
aa(lp277
F18.5106367
aF73.8460231
aF180.0
aa(lp278
F18.5122021
aF73.8438027
aF240.0
aa(lp279
F18.5127814
aF73.84372139999999
aF300.0
aa(lp280
F18.5145166
aF73.8423799
aF360.0
aa(lp281
F18.5269352
aF73.84220010000001
aF660.0
aa(lp282
F18.5280459
aF73.84281250000001
aF720.0
aa(lp283
F18.5313611
aF73.8446596
aF780.0
aa(lp284
F18.5407884
aF73.8307769
aF1080.0
aa(lp285
F18.5491443
aF73.8231041
aF1200.0
aa(lp286
F18.5523814
aF73.81923309999999
aF1260.0
aa(lp287
F18.5508658
aF73.8185223
aF1320.0
aaa(lp288
(lp289
F18.523793
aF73.807045
aF0.0
aa(lp290
F18.5322742
aF73.8026886
aF1020.0
aa(lp291
F18.5327537
aF73.80188059999999
aF1080.0
aa(lp292
F18.5361506
aF73.80201699999999
aF1200.0
aa(lp293
F18.5361316
aF73.8019273
aF1260.0
aa(lp294
F18.5378655
aF73.80281049999999
aF1320.0
aa(lp295
F18.5400835
aF73.8176794
aF1500.0
aa(lp296
F18.5470963
aF73.8171508
aF1560.0
aa(lp297
F18.5454022
aF73.82244159999999
aF1620.0
aa(lp298
F18.5474463
aF73.82121769999999
aF1680.0
aa(lp299
F18.5477811
aF73.8213403
aF1740.0
aa(lp300
F18.5488495
aF73.82231089999999
aF1800.0
aa(lp301
F18.5498662
aF73.8216217
aF1860.0
aaa(lp302
(lp303
F18.544129
aF73.870675
aF0.0
aa(lp304
F18.543782
aF73.870915
aF60.0
aa(lp305
F18.5433104
aF73.8705203
aF120.0
aa(lp306
F18.5427835
aF73.8712644
aF180.0
aa(lp307
F18.5413557
aF73.870091
aF240.0
aa(lp308
F18.5446192
aF73.8768068
aF360.0
aa(lp309
F18.531965
aF73.8538019
aF660.0
aa(lp310
F18.5304493
aF73.8552138
aF720.0
aa(lp311
F18.5272999
aF73.8511517
aF840.0
aa(lp312
F18.522846
aF73.848166
aF960.0
aa(lp313
F18.5160815
aF73.8425117
aF1140.0
aa(lp314
F18.5146961
aF73.84241089999999
aF1200.0
aa(lp315
F18.5086173
aF73.8313994
aF1500.0
aa(lp316
F18.5058369
aF73.8328769
aF1560.0
aa(lp317
F18.5023615
aF73.828609
aF1680.0
aa(lp318
F18.5019448
aF73.82895119999999
aF1740.0
aa(lp319
F18.5001915
aF73.8287665
aF1800.0
aa(lp320
F18.4995691
aF73.8281842
aF1860.0
aaa(lp321
(lp322
F18.508999
aF73.840798
aF0.0
aa(lp323
F18.5093814
aF73.8420388
aF60.0
aa(lp324
F18.5095797
aF73.8435159
aF120.0
aa(lp325
F18.5127814
aF73.84372139999999
aF240.0
aa(lp326
F18.5145166
aF73.8423799
aF300.0
aa(lp327
F18.5226715
aF73.8408888
aF480.0
aa(lp328
F18.5226466
aF73.84175739999999
aF540.0
aa(lp329
F18.5238372
aF73.84204989999999
aF600.0
aaa(lp330
(lp331
F18.519521
aF73.798753
aF0.0
aa(lp332
F18.5089552
aF73.8035101
aF300.0
aa(lp333
F18.5071128
aF73.8036723
aF360.0
aa(lp334
F18.5069747
aF73.80281819999999
aF420.0
aa(lp335
F18.5023829
aF73.8019593
aF540.0
aa(lp336
F18.5023287
aF73.80235789999999
aF600.0
aa(lp337
F18.4961981
aF73.802082
aF720.0
aa(lp338
F18.4965809
aF73.8005385
aF780.0
aa(lp339
F18.4988058
aF73.8009812
aF840.0
aa(lp340
F18.4988312
aF73.80050419999999
aF900.0
aa(lp341
F18.4993111
aF73.80094849999999
aF960.0
aaa(lp342
(lp343
F18.493585
aF73.831494
aF0.0
aa(lp344
F18.4915894
aF73.8335364
aF60.0
aa(lp345
F18.4961315
aF73.8384255
aF180.0
aa(lp346
F18.495223
aF73.8375204
aF240.0
aa(lp347
F18.4937698
aF73.83982929999999
aF300.0
aa(lp348
F18.4923169
aF73.8394898
aF360.0
aa(lp349
F18.4923917
aF73.8395307
aF420.0
aaa(lp350
(lp351
F18.527756
aF73.874262
aF0.0
aa(lp352
F18.5279954
aF73.8733816
aF60.0
aa(lp353
F18.5256553
aF73.86772049999999
aF240.0
aa(lp354
F18.5255329
aF73.8675702
aF300.0
aa(lp355
F18.5226567
aF73.8675021
aF360.0
aa(lp356
F18.5216161
aF73.8649873
aF420.0
aa(lp357
F18.5195679
aF73.8648841
aF480.0
aa(lp358
F18.5196191
aF73.8624791
aF540.0
aa(lp359
F18.5192094
aF73.861538
aF600.0
aa(lp360
F18.5180037
aF73.8616668
aF660.0
aa(lp361
F18.5180184
aF73.8615086
aF720.0
aa(lp362
F18.5174684
aF73.86124579999999
aF780.0
aaa(lp363
(lp364
F18.529455
aF73.829662
aF0.0
aa(lp365
F18.5408101
aF73.830462
aF240.0
aa(lp366
F18.539741
aF73.8324402
aF300.0
aa(lp367
F18.5321747
aF73.8428567
aF480.0
aa(lp368
F18.5309006
aF73.847217
aF540.0
aa(lp369
F18.5302272
aF73.849789
aF600.0
aa(lp370
F18.5298512
aF73.8511255
aF660.0
aa(lp371
F18.5289163
aF73.8543789
aF720.0
aa(lp372
F18.528172
aF73.8575135
aF780.0
aa(lp373
F18.5279973
aF73.8633726
aF900.0
aa(lp374
F18.52409
aF73.8701408
aF1080.0
aa(lp375
F18.5249238
aF73.8765667
aF1200.0
aa(lp376
F18.5231781
aF73.88798659999999
aF1440.0
aa(lp377
F18.5231786
aF73.88886670000001
aF1500.0
aa(lp378
F18.5065764
aF73.9068977
aF1920.0
aa(lp379
F18.5092604
aF73.9070395
aF1980.0
aaa(lp380
(lp381
F18.556838
aF73.820658
aF0.0
aa(lp382
F18.5560813
aF73.8220786
aF60.0
aa(lp383
F18.5544675
aF73.8234679
aF120.0
aa(lp384
F18.5543196
aF73.8245288
aF180.0
aa(lp385
F18.5545095
aF73.8252887
aF240.0
aa(lp386
F18.5616334
aF73.84053639999999
aF540.0
aa(lp387
F18.561684
aF73.8411277
aF600.0
aa(lp388
F18.5565977
aF73.8442895
aF720.0
aa(lp389
F18.5574347
aF73.84649399999999
aF780.0
aa(lp390
F18.5565007
aF73.84719199999999
aF840.0
aa(lp391
F18.5578329
aF73.84983729999999
aF900.0
aa(lp392
F18.5549999
aF73.8520679
aF960.0
aa(lp393
F18.5574229
aF73.8576768
aF1020.0
aa(lp394
F18.5488669
aF73.8709631
aF1140.0
aa(lp395
F18.5523436
aF73.87305959999999
aF1200.0
aa(lp396
F18.5527407
aF73.88957669999999
aF1440.0
aa(lp397
F18.5523328
aF73.8964917
aF1560.0
aa(lp398
F18.5458459
aF73.8891244
aF1740.0
aa(lp399
F18.5456159
aF73.88949769999999
aF1800.0
aaa(lp400
(lp401
F18.546513
aF73.847319
aF0.0
aa(lp402
F18.5449733
aF73.83919829999999
aF120.0
aa(lp403
F18.5446039
aF73.83882489999999
aF180.0
aa(lp404
F18.5386332
aF73.8340431
aF300.0
aa(lp405
F18.5346448
aF73.8392502
aF420.0
aa(lp406
F18.5299997
aF73.8374091
aF540.0
aa(lp407
F18.5299102
aF73.83540599999999
aF600.0
aa(lp408
F18.5271748
aF73.8377702
aF720.0
aa(lp409
F18.5266724
aF73.83745139999999
aF780.0
aa(lp410
F18.5250141
aF73.8358652
aF840.0
aaa(lp411
(lp412
F18.505025
aF73.84189
aF0.0
aa(lp413
F18.5049581
aF73.84208129999999
aF60.0
aa(lp414
F18.5093814
aF73.8420388
aF120.0
aa(lp415
F18.5116228
aF73.83734369999999
aF240.0
aa(lp416
F18.5139463
aF73.8361164
aF300.0
aa(lp417
F18.5153514
aF73.82884
aF480.0
aa(lp418
F18.5201773
aF73.8304253
aF600.0
aa(lp419
F18.5252281
aF73.829627
aF720.0
aa(lp420
F18.5238948
aF73.82707359999999
aF780.0
aa(lp421
F18.5269469
aF73.8269773
aF900.0
aa(lp422
F18.5269999
aF73.8240151
aF1020.0
aaa(lp423
(lp424
F18.512844
aF73.859591
aF0.0
aa(lp425
F18.5159884
aF73.8593951
aF120.0
aa(lp426
F18.5186747
aF73.85960589999999
aF180.0
aa(lp427
F18.5185516
aF73.85618939999999
aF300.0
aa(lp428
F18.5186014
aF73.854552
aF360.0
aa(lp429
F18.5215152
aF73.8550826
aF420.0
aa(lp430
F18.5221334
aF73.8560317
aF480.0
aaa(lp431
(lp432
F18.519779
aF73.814961
aF0.0
aa(lp433
F18.5177848
aF73.81538590000001
aF60.0
aa(lp434
F18.51726
aF73.81603419999999
aF120.0
aa(lp435
F18.5171609
aF73.8174248
aF180.0
aa(lp436
F18.5150954
aF73.81770019999999
aF240.0
aa(lp437
F18.5128424
aF73.81850469999999
aF300.0
aa(lp438
F18.5124817
aF73.8199195
aF360.0
aa(lp439
F18.5109085
aF73.8196404
aF420.0
aa(lp440
F18.506003
aF73.8253257
aF540.0
aa(lp441
F18.5069899
aF73.8278806
aF600.0
aa(lp442
F18.5104833
aF73.829157
aF660.0
aa(lp443
F18.5106703
aF73.829574
aF720.0
aa(lp444
F18.5201773
aF73.8304253
aF900.0
aa(lp445
F18.5399935
aF73.82961139999999
aF1320.0
aa(lp446
F18.5416175
aF73.829425
aF1380.0
aa(lp447
F18.5418784
aF73.8290671
aF1440.0
aa(lp448
F18.553034
aF73.8028009
aF1800.0
aa(lp449
F18.5527373
aF73.80177909999999
aF1860.0
aaa(lp450
(lp451
F18.508375
aF73.833086
aF0.0
aa(lp452
F18.5095113
aF73.83440089999999
aF60.0
aa(lp453
F18.5100512
aF73.83405859999999
aF120.0
aa(lp454
F18.5142999
aF73.8337672
aF240.0
aa(lp455
F18.5153514
aF73.82884
aF360.0
aa(lp456
F18.5201773
aF73.8304253
aF480.0
aa(lp457
F18.5399935
aF73.82961139999999
aF900.0
aa(lp458
F18.5416175
aF73.829425
aF960.0
aa(lp459
F18.5418784
aF73.8290671
aF1020.0
aa(lp460
F18.542053
aF73.8284666
aF1080.0
aa(lp461
F18.5378504
aF73.8029114
aF1380.0
aa(lp462
F18.5361506
aF73.80201699999999
aF1440.0
aa(lp463
F18.5327537
aF73.80188059999999
aF1560.0
aa(lp464
F18.5322742
aF73.8026886
aF1620.0
aa(lp465
F18.534496
aF73.8029765
aF1680.0
aaa(lp466
(lp467
F18.537778
aF73.888843
aF0.0
aa(lp468
F18.5395633
aF73.88818739999999
aF60.0
aa(lp469
F18.5393982
aF73.88549669999999
aF120.0
aa(lp470
F18.538075
aF73.8855541
aF180.0
aa(lp471
F18.5347242
aF73.87965539999999
aF300.0
aa(lp472
F18.5307515
aF73.8756569
aF420.0
aa(lp473
F18.529748
aF73.857365
aF720.0
aa(lp474
F18.5295399
aF73.85318749999999
aF780.0
aa(lp475
F18.5272999
aF73.8511517
aF840.0
aa(lp476
F18.522846
aF73.848166
aF960.0
aa(lp477
F18.5160815
aF73.8425117
aF1140.0
aa(lp478
F18.5146961
aF73.84241089999999
aF1200.0
aa(lp479
F18.5068136
aF73.8276525
aF1560.0
aa(lp480
F18.5058458
aF73.82554069999999
aF1620.0
aa(lp481
F18.5020234
aF73.8154532
aF1860.0
aa(lp482
F18.5019216
aF73.81077300000001
aF1980.0
aa(lp483
F18.5020163
aF73.8103598
aF2040.0
aa(lp484
F18.5020622
aF73.8055694
aF2100.0
aa(lp485
F18.4997671
aF73.8054611
aF2160.0
aa(lp486
F18.4997917
aF73.8050009
aF2220.0
aaa(lp487
(lp488
F18.548624
aF73.867288
aF0.0
aa(lp489
F18.5491487
aF73.86687359999999
aF60.0
aa(lp490
F18.5494437
aF73.8669304
aF120.0
aa(lp491
F18.5514563
aF73.8638273
aF180.0
aa(lp492
F18.5526211
aF73.8649358
aF240.0
aa(lp493
F18.5488669
aF73.8709631
aF300.0
aa(lp494
F18.5523436
aF73.87305959999999
aF360.0
aa(lp495
F18.5529872
aF73.8870269
aF540.0
aaa(lp496
(lp497
F18.499635
aF73.822084
aF0.0
aa(lp498
F18.5041857
aF73.8211845
aF120.0
aa(lp499
F18.5146342
aF73.8423354
aF600.0
aa(lp500
F18.5269352
aF73.84220010000001
aF900.0
aa(lp501
F18.5280459
aF73.84281250000001
aF960.0
aa(lp502
F18.5313611
aF73.8446596
aF1020.0
aa(lp503
F18.5302272
aF73.849789
aF1140.0
aa(lp504
F18.5298512
aF73.8511255
aF1200.0
aa(lp505
F18.5303759
aF73.8550638
aF1260.0
aa(lp506
F18.5317982
aF73.8536286
aF1320.0
aa(lp507
F18.5446192
aF73.8768068
aF1620.0
aa(lp508
F18.5452353
aF73.88362149999999
aF1740.0
aa(lp509
F18.5451136
aF73.88477739999999
aF1800.0
aa(lp510
F18.5495841
aF73.8931157
aF1980.0
aa(lp511
F18.5504105
aF73.8920448
aF2040.0
aa(lp512
F18.5505642
aF73.892349
aF2100.0
aa(lp513
F18.5512128
aF73.89219039999999
aF2160.0
aaa(lp514
(lp515
F18.51517
aF73.820632
aF0.0
aa(lp516
F18.5170308
aF73.81744180000001
aF120.0
aa(lp517
F18.5150954
aF73.81770019999999
aF180.0
aa(lp518
F18.5128424
aF73.81850469999999
aF240.0
aa(lp519
F18.5124817
aF73.8199195
aF300.0
aa(lp520
F18.5109085
aF73.8196404
aF360.0
aa(lp521
F18.506003
aF73.8253257
aF480.0
aa(lp522
F18.5146342
aF73.8423354
aF840.0
aa(lp523
F18.5269352
aF73.84220010000001
aF1140.0
aa(lp524
F18.5280459
aF73.84281250000001
aF1200.0
aa(lp525
F18.5313611
aF73.8446596
aF1260.0
aa(lp526
F18.5302272
aF73.849789
aF1380.0
aa(lp527
F18.5298512
aF73.8511255
aF1440.0
aa(lp528
F18.5303759
aF73.8550638
aF1500.0
aa(lp529
F18.5317982
aF73.8536286
aF1560.0
aa(lp530
F18.5446192
aF73.8768068
aF1860.0
aa(lp531
F18.5443864
aF73.8779203
aF1920.0
aa(lp532
F18.5454647
aF73.87856099999999
aF1980.0
aa(lp533
F18.5451817
aF73.87915269999999
aF2040.0
aa(lp534
F18.5460098
aF73.8795646
aF2100.0
aa(lp535
F18.5458542
aF73.88009389999999
aF2160.0
aa(lp536
F18.5460924
aF73.8801245
aF2220.0
aaa(lp537
(lp538
F18.502945
aF73.860452
aF0.0
aa(lp539
F18.5030139
aF73.86159339999999
aF60.0
aa(lp540
F18.5038986
aF73.85905559999999
aF180.0
aa(lp541
F18.5040783
aF73.85659869999999
aF240.0
aa(lp542
F18.5066751
aF73.85658459999999
aF300.0
aa(lp543
F18.506687
aF73.8536967
aF360.0
aa(lp544
F18.5186014
aF73.854552
aF720.0
aa(lp545
F18.5266668
aF73.85234129999999
aF900.0
aa(lp546
F18.5297581
aF73.8498142
aF960.0
aa(lp547
F18.5307446
aF73.8473852
aF1020.0
aa(lp548
F18.5320978
aF73.8428204
aF1080.0
aa(lp549
F18.5385242
aF73.8339481
aF1260.0
aa(lp550
F18.5569641
aF73.83965409999999
aF1560.0
aa(lp551
F18.556986
aF73.83860790000001
aF1620.0
aaa(lp552
(lp553
F18.531079
aF73.88766
aF0.0
aa(lp554
F18.5284847
aF73.8887724
aF60.0
aa(lp555
F18.5285486
aF73.8918601
aF120.0
aa(lp556
F18.5266399
aF73.8916662
aF180.0
aa(lp557
F18.5250028
aF73.8932907
aF240.0
aa(lp558
F18.5231261
aF73.8889937
aF300.0
aa(lp559
F18.5231781
aF73.88798659999999
aF360.0
aa(lp560
F18.5283225
aF73.88534969999999
aF480.0
aa(lp561
F18.5412344
aF73.88443149999999
aF720.0
aa(lp562
F18.5448518
aF73.8832869
aF780.0
aa(lp563
F18.5448233
aF73.87707999999999
aF900.0
aa(lp564
F18.5528464
aF73.87960559999999
aF1020.0
aa(lp565
F18.5521334
aF73.873398
aF1080.0
aa(lp566
F18.5495749
aF73.871799
aF1140.0
aa(lp567
F18.5498657
aF73.87128609999999
aF1200.0
aa(lp568
F18.5511412
aF73.87149509999999
aF1260.0
aaa(lp569
(lp570
F18.499047
aF73.847106
aF0.0
aa(lp571
F18.4987752
aF73.85021449999999
aF60.0
aa(lp572
F18.4979585
aF73.8510759
aF120.0
aa(lp573
F18.4974788
aF73.85101449999999
aF180.0
aa(lp574
F18.497298
aF73.8539911
aF240.0
aa(lp575
F18.4967208
aF73.8578383
aF360.0
aa(lp576
F18.4982392
aF73.8581178
aF420.0
aa(lp577
F18.500551
aF73.8584039
aF480.0
aa(lp578
F18.5005577
aF73.8666047
aF660.0
aa(lp579
F18.5019152
aF73.8728198
aF720.0
aa(lp580
F18.5028422
aF73.8786532
aF840.0
aa(lp581
F18.506985
aF73.8791564
aF960.0
aa(lp582
F18.5136808
aF73.8798463
aF1080.0
aa(lp583
F18.5143691
aF73.88348979999999
aF1140.0
aa(lp584
F18.5184946
aF73.8832259
aF1200.0
aa(lp585
F18.51894
aF73.8823488
aF1260.0
aa(lp586
F18.5232894
aF73.88600550000001
aF1380.0
aa(lp587
F18.5231781
aF73.88798659999999
aF1440.0
aa(lp588
F18.5283225
aF73.88534969999999
aF1500.0
aa(lp589
F18.5393859
aF73.8853733
aF1680.0
aa(lp590
F18.5395748
aF73.8875869
aF1740.0
aa(lp591
F18.5397282
aF73.88947230000001
aF1800.0
aa(lp592
F18.5391518
aF73.9036502
aF2040.0
aa(lp593
F18.5430072
aF73.904883
aF2100.0
aa(lp594
F18.5428906
aF73.9037772
aF2160.0
aa(lp595
F18.5462132
aF73.9039705
aF2220.0
aa(lp596
F18.5463402
aF73.90331180000001
aF2280.0
aa(lp597
F18.5472357
aF73.9034518
aF2340.0
aaa(lp598
(lp599
F18.54535
aF73.822773
aF0.0
aa(lp600
F18.542234
aF73.8285112
aF120.0
aa(lp601
F18.5409727
aF73.8306779
aF180.0
aa(lp602
F18.5203427
aF73.83044869999999
aF600.0
aa(lp603
F18.5084362
aF73.8308409
aF900.0
aa(lp604
F18.5068136
aF73.8276525
aF960.0
aa(lp605
F18.5058458
aF73.82554069999999
aF1020.0
aa(lp606
F18.4952545
aF73.8133935
aF1380.0
aa(lp607
F18.4952399
aF73.8134725
aF1440.0
aaa(lp608
(lp609
F18.498297
aF73.824052
aF0.0
aa(lp610
F18.4986719
aF73.82407549999999
aF60.0
aa(lp611
F18.4983421
aF73.8232203
aF120.0
aa(lp612
F18.4998145
aF73.8224132
aF180.0
aa(lp613
F18.5041857
aF73.8211845
aF300.0
aa(lp614
F18.5069899
aF73.8278806
aF420.0
aa(lp615
F18.5104833
aF73.829157
aF480.0
aa(lp616
F18.5106703
aF73.829574
aF540.0
aa(lp617
F18.5201773
aF73.8304253
aF720.0
aa(lp618
F18.5316742
aF73.8299906
aF960.0
aa(lp619
F18.5317318
aF73.8287625
aF1020.0
aa(lp620
F18.5329816
aF73.82880469999999
aF1080.0
aa(lp621
F18.5329575
aF73.82438259999999
aF1200.0
aa(lp622
F18.5340834
aF73.82442619999999
aF1260.0
aaa(lp623
(lp624
F18.50114
aF73.897434
aF0.0
aa(lp625
F18.4910912
aF73.8947931
aF180.0
aa(lp626
F18.4859579
aF73.8892037
aF300.0
aa(lp627
F18.4931491
aF73.8847162
aF480.0
aaa(lp628
(lp629
F18.503578
aF73.831127
aF0.0
aa(lp630
F18.5038898
aF73.8310333
aF60.0
aa(lp631
F18.5041655
aF73.8307712
aF120.0
aa(lp632
F18.5057994
aF73.8327795
aF180.0
aa(lp633
F18.5068835
aF73.83227699999999
aF240.0
aa(lp634
F18.5110801
aF73.8381891
aF420.0
aa(lp635
F18.5093814
aF73.8420388
aF480.0
aa(lp636
F18.5095797
aF73.8435159
aF540.0
aa(lp637
F18.5127814
aF73.84372139999999
aF660.0
aa(lp638
F18.5147071
aF73.8455589
aF780.0
aa(lp639
F18.5151797
aF73.8448446
aF840.0
aa(lp640
F18.519942
aF73.84866199999999
aF900.0
aa(lp641
F18.5210478
aF73.8535079
aF960.0
aa(lp642
F18.5204022
aF73.8537022
aF1020.0
aa(lp643
F18.5204154
aF73.8541726
aF1080.0
aa(lp644
F18.5202074
aF73.85449
aF1140.0
aa(lp645
F18.5215152
aF73.8550826
aF1200.0
aa(lp646
F18.5278858
aF73.8633753
aF1440.0
aa(lp647
F18.5297274
aF73.8632136
aF1500.0
aa(lp648
F18.5308132
aF73.8755876
aF1740.0
aa(lp649
F18.5347475
aF73.87952949999999
aF1860.0
aa(lp650
F18.5366355
aF73.8808311
aF1920.0
aa(lp651
F18.5386505
aF73.88063369999999
aF1980.0
aaa(lp652
(lp653
F18.533567
aF73.819382
aF0.0
aa(lp654
F18.5308866
aF73.8231825
aF120.0
aa(lp655
F18.5292974
aF73.8235195
aF180.0
aa(lp656
F18.5290574
aF73.8298607
aF360.0
aa(lp657
F18.5203427
aF73.83044869999999
aF600.0
aa(lp658
F18.5084362
aF73.8308409
aF900.0
aa(lp659
F18.5068136
aF73.8276525
aF960.0
aa(lp660
F18.5066045
aF73.82400559999999
aF1020.0
aa(lp661
F18.5077153
aF73.8230421
aF1080.0
aa(lp662
F18.5081967
aF73.8231162
aF1140.0
aa(lp663
F18.5127193
aF73.8230565
aF1260.0
aa(lp664
F18.5124322
aF73.8218302
aF1320.0
aa(lp665
F18.5124469
aF73.8218139
aF1380.0
aa(lp666
F18.5128424
aF73.81850469999999
aF1500.0
aa(lp667
F18.5189459
aF73.81725159999999
aF1620.0
aaa(lp668
(lp669
F18.502553
aF73.864579
aF0.0
aa(lp670
F18.5019416
aF73.8641267
aF60.0
aa(lp671
F18.5016581
aF73.86611119999999
aF120.0
aa(lp672
F18.5004144
aF73.8662829
aF180.0
aa(lp673
F18.5005577
aF73.8666047
aF240.0
aa(lp674
F18.5019152
aF73.8728198
aF300.0
aa(lp675
F18.5028422
aF73.8786532
aF420.0
aa(lp676
F18.506985
aF73.8791564
aF540.0
aa(lp677
F18.5064578
aF73.8841059
aF660.0
aa(lp678
F18.501121
aF73.8917711
aF840.0
aa(lp679
F18.5044368
aF73.8937244
aF960.0
aaa(lp680
(lp681
F18.51556
aF73.880405
aF0.0
aa(lp682
F18.515439
aF73.87974059999999
aF60.0
aa(lp683
F18.5138279
aF73.87988059999999
aF120.0
aa(lp684
F18.5136262
aF73.87879269999999
aF180.0
aa(lp685
F18.5164629
aF73.87401109999999
aF360.0
aa(lp686
F18.5154181
aF73.8648316
aF600.0
aa(lp687
F18.51389
aF73.86513839999999
aF660.0
aa(lp688
F18.5137747
aF73.8635494
aF720.0
aa(lp689
F18.5129639
aF73.86349609999999
aF780.0
aaa(lp690
(lp691
F18.527077
aF73.852073
aF0.0
aa(lp692
F18.5260278
aF73.8530786
aF60.0
aa(lp693
F18.524892
aF73.8537073
aF120.0
aa(lp694
F18.5233159
aF73.8545326
aF180.0
aa(lp695
F18.5226495
aF73.85317429999999
aF240.0
aa(lp696
F18.522561
aF73.8486482
aF360.0
aa(lp697
F18.5227883
aF73.8481157
aF420.0
aa(lp698
F18.5246302
aF73.84136020000001
aF600.0
aa(lp699
F18.5269352
aF73.84220010000001
aF660.0
aa(lp700
F18.5271748
aF73.8377702
aF720.0
aa(lp701
F18.5266724
aF73.83745139999999
aF780.0
aa(lp702
F18.5252743
aF73.8297413
aF960.0
aa(lp703
F18.5234893
aF73.824951
aF1080.0
aa(lp704
F18.5248848
aF73.8241458
aF1140.0
aa(lp705
F18.5255204
aF73.8240373
aF1200.0
aaa(lp706
(lp707
F18.493723
aF73.874038
aF0.0
aa(lp708
F18.4941133
aF73.8736911
aF60.0
aa(lp709
F18.4930243
aF73.8693349
aF180.0
aa(lp710
F18.4964976
aF73.86925409999999
aF300.0
aa(lp711
F18.496626
aF73.85826039999999
aF540.0
aa(lp712
F18.4971592
aF73.85409700000001
aF660.0
aa(lp713
F18.4993467
aF73.8538758
aF720.0
aa(lp714
F18.4877877
aF73.8291869
aF1200.0
aa(lp715
F18.4889724
aF73.82663
aF1260.0
aa(lp716
F18.4898613
aF73.82715329999999
aF1320.0
aa(lp717
F18.4915297
aF73.82163349999999
aF1440.0
aa(lp718
F18.4926767
aF73.81836799999999
aF1500.0
aa(lp719
F18.4944486
aF73.8181206
aF1560.0
aa(lp720
F18.4931812
aF73.8151989
aF1620.0
aa(lp721
F18.4952638
aF73.81328189999999
aF1680.0
aa(lp722
F18.4953628
aF73.8121398
aF1740.0
aa(lp723
F18.49612
aF73.8060394
aF1920.0
aaa(lp724
(lp725
F18.554923
aF73.82272
aF0.0
aa(lp726
F18.5543196
aF73.8245288
aF60.0
aa(lp727
F18.5545095
aF73.8252887
aF120.0
aa(lp728
F18.5541666
aF73.8264028
aF180.0
aa(lp729
F18.5525369
aF73.82628869999999
aF240.0
aa(lp730
F18.5501583
aF73.8275754
aF300.0
aa(lp731
F18.5430614
aF73.828648
aF420.0
aa(lp732
F18.5423951
aF73.828603
aF480.0
aa(lp733
F18.539741
aF73.8324402
aF540.0
aa(lp734
F18.5321747
aF73.8428567
aF720.0
aa(lp735
F18.5309006
aF73.847217
aF780.0
aa(lp736
F18.5302272
aF73.849789
aF840.0
aa(lp737
F18.5298512
aF73.8511255
aF900.0
aa(lp738
F18.5303759
aF73.8550638
aF960.0
aa(lp739
F18.5317982
aF73.8536286
aF1020.0
aa(lp740
F18.5413557
aF73.870091
aF1260.0
aa(lp741
F18.5427835
aF73.8712644
aF1320.0
aa(lp742
F18.5441161
aF73.87289179999999
aF1380.0
aa(lp743
F18.5449314
aF73.8721826
aF1440.0
aaa(lp744
(lp745
F18.495204
aF73.878771
aF0.0
aa(lp746
F18.4986718
aF73.87761979999999
aF60.0
aa(lp747
F18.4995746
aF73.8797763
aF120.0
aa(lp748
F18.5027644
aF73.8786609
aF180.0
aa(lp749
F18.506985
aF73.8791564
aF300.0
aa(lp750
F18.5106289
aF73.88008700000002
aF360.0
aa(lp751
F18.5106735
aF73.88151979999999
aF420.0
aa(lp752
F18.5180576
aF73.88040509999999
aF540.0
aa(lp753
F18.5279973
aF73.8633726
aF1020.0
aa(lp754
F18.5297274
aF73.8632136
aF1080.0
aa(lp755
F18.529748
aF73.857365
aF1200.0
aa(lp756
F18.5295399
aF73.85318749999999
aF1260.0
aa(lp757
F18.527542
aF73.8514185
aF1320.0
aa(lp758
F18.5275652
aF73.8507529
aF1380.0
aa(lp759
F18.5297581
aF73.8498142
aF1440.0
aa(lp760
F18.5307446
aF73.8473852
aF1500.0
aa(lp761
F18.5320978
aF73.8428204
aF1560.0
aa(lp762
F18.5407884
aF73.8307769
aF1800.0
aa(lp763
F18.5418784
aF73.8290671
aF1860.0
aa(lp764
F18.542053
aF73.8284666
aF1920.0
aa(lp765
F18.5418412
aF73.82724429999999
aF1980.0
aa(lp766
F18.5411906
aF73.827744
aF2040.0
aaa(lp767
(lp768
F18.49791
aF73.90626
aF0.0
aa(lp769
F18.4999434
aF73.9056411
aF60.0
aa(lp770
F18.4997659
aF73.9075218
aF120.0
aa(lp771
F18.5045536
aF73.91253600000002
aF300.0
aa(lp772
F18.5043203
aF73.9070708
aF420.0
aa(lp773
F18.5028815
aF73.9053217
aF480.0
aaa(lp774
(lp775
F18.501338
aF73.803815
aF0.0
aa(lp776
F18.5007804
aF73.8038346
aF60.0
aa(lp777
F18.5007183
aF73.80487049999999
aF120.0
aa(lp778
F18.5020636
aF73.8049503
aF180.0
aa(lp779
F18.5020025
aF73.81065559999999
aF300.0
aa(lp780
F18.5021209
aF73.8153753
aF420.0
aa(lp781
F18.5146342
aF73.8423354
aF1020.0
aa(lp782
F18.5269352
aF73.84220010000001
aF1320.0
aa(lp783
F18.5280459
aF73.84281250000001
aF1380.0
aa(lp784
F18.5313611
aF73.8446596
aF1440.0
aa(lp785
F18.5302272
aF73.849789
aF1560.0
aa(lp786
F18.5298512
aF73.8511255
aF1620.0
aa(lp787
F18.5303759
aF73.8550638
aF1680.0
aa(lp788
F18.5317982
aF73.8536286
aF1740.0
aa(lp789
F18.5446192
aF73.8768068
aF2040.0
aa(lp790
F18.5381911
aF73.8643792
aF2220.0
aaa(lp791
(lp792
F18.502889
aF73.895093
aF0.0
aa(lp793
F18.5036275
aF73.89572799999999
aF60.0
aa(lp794
F18.5039616
aF73.8936185
aF120.0
aa(lp795
F18.5063196
aF73.8937917
aF180.0
aa(lp796
F18.5064423
aF73.8887537
aF300.0
aa(lp797
F18.5099752
aF73.8888764
aF360.0
aa(lp798
F18.5106735
aF73.88151979999999
aF480.0
aa(lp799
F18.5180576
aF73.88040509999999
aF600.0
aa(lp800
F18.5279973
aF73.8633726
aF1080.0
aa(lp801
F18.5297274
aF73.8632136
aF1140.0
aa(lp802
F18.529748
aF73.857365
aF1260.0
aa(lp803
F18.5295399
aF73.85318749999999
aF1320.0
aa(lp804
F18.527542
aF73.8514185
aF1380.0
aa(lp805
F18.5275652
aF73.8507529
aF1440.0
aa(lp806
F18.5297581
aF73.8498142
aF1500.0
aa(lp807
F18.5307446
aF73.8473852
aF1560.0
aa(lp808
F18.5318751
aF73.8430544
aF1620.0
aa(lp809
F18.5299102
aF73.83540599999999
aF1800.0
aa(lp810
F18.5290593
aF73.82998669999999
aF1920.0
aa(lp811
F18.5292151
aF73.8266348
aF2040.0
aa(lp812
F18.5283615
aF73.8265243
aF2100.0
aa(lp813
F18.5285018
aF73.82511040000001
aF2160.0
aa(lp814
F18.5282897
aF73.8251008
aF2220.0
aa(lp815
F18.5282094
aF73.82354459999999
aF2280.0
aa(lp816
F18.528271
aF73.8235247
aF2340.0
aa(lp817
F18.5279061
aF73.8230648
aF2400.0
aa(lp818
F18.5276468
aF73.8218121
aF2460.0
aaa(lp819
(lp820
F18.503964
aF73.84354
aF0.0
aa(lp821
F18.5038222
aF73.8421966
aF60.0
aa(lp822
F18.5048739
aF73.84216119999999
aF120.0
aa(lp823
F18.5048757
aF73.84208269999999
aF180.0
aa(lp824
F18.5093814
aF73.8420388
aF300.0
aa(lp825
F18.5116228
aF73.83734369999999
aF420.0
aa(lp826
F18.5139463
aF73.8361164
aF480.0
aa(lp827
F18.5153514
aF73.82884
aF660.0
aa(lp828
F18.5201773
aF73.8304253
aF780.0
aa(lp829
F18.5399935
aF73.82961139999999
aF1200.0
aa(lp830
F18.5416175
aF73.829425
aF1260.0
aa(lp831
F18.5418784
aF73.8290671
aF1320.0
aa(lp832
F18.551125
aF73.8049005
aF1620.0
aa(lp833
F18.5490894
aF73.8047179
aF1680.0
aa(lp834
F18.5487043
aF73.8033185
aF1740.0
aa(lp835
F18.5486269
aF73.8029959
aF1800.0
aaa(lp836
(lp837
F18.519591
aF73.83051
aF0.0
aa(lp838
F18.5201773
aF73.8304253
aF60.0
aa(lp839
F18.5399935
aF73.82961139999999
aF480.0
aa(lp840
F18.5416175
aF73.829425
aF540.0
aa(lp841
F18.5421763
aF73.82863019999999
aF600.0
aa(lp842
F18.5468376
aF73.826189
aF780.0
aa(lp843
F18.5464926
aF73.826163
aF840.0
aaa(lp844
(lp845
F18.523713
aF73.849537
aF0.0
aa(lp846
F18.5235442
aF73.8494481
aF60.0
aa(lp847
F18.5238668
aF73.8488325
aF120.0
aa(lp848
F18.522846
aF73.848166
aF180.0
aa(lp849
F18.5160815
aF73.8425117
aF360.0
aa(lp850
F18.5146961
aF73.84241089999999
aF420.0
aa(lp851
F18.5068136
aF73.8276525
aF780.0
aa(lp852
F18.5066045
aF73.82400559999999
aF840.0
aa(lp853
F18.5070063
aF73.8036695
aF1260.0
aa(lp854
F18.5078483
aF73.8036103
aF1320.0
aa(lp855
F18.5102635
aF73.8033547
aF1380.0
aa(lp856
F18.51609
aF73.801812
aF1560.0
aaa(lp857
(lp858
F18.552407
aF73.867947
aF0.0
aa(lp859
F18.5515657
aF73.8678335
aF60.0
aa(lp860
F18.551396
aF73.869428
aF120.0
aa(lp861
F18.5505373
aF73.8692034
aF180.0
aa(lp862
F18.5486903
aF73.87124179999999
aF240.0
aa(lp863
F18.5452353
aF73.88362149999999
aF480.0
aa(lp864
F18.5451136
aF73.88477739999999
aF540.0
aa(lp865
F18.5448717
aF73.88477139999999
aF600.0
aa(lp866
F18.5416107
aF73.8853852
aF660.0
aa(lp867
F18.5352574
aF73.8856752
aF780.0
aa(lp868
F18.5231781
aF73.88798659999999
aF960.0
aa(lp869
F18.5232894
aF73.88600550000001
aF1020.0
aa(lp870
F18.5222723
aF73.885468
aF1080.0
aa(lp871
F18.51894
aF73.8823488
aF1140.0
aa(lp872
F18.5206564
aF73.8791044
aF1200.0
aa(lp873
F18.5200877
aF73.8788613
aF1260.0
aaa(lp874
(lp875
F18.498502
aF73.843843
aF0.0
aa(lp876
F18.4987752
aF73.85021449999999
aF180.0
aa(lp877
F18.5012106
aF73.85077179999999
aF240.0
aa(lp878
F18.4993364
aF73.8508705
aF300.0
aa(lp879
F18.4997343
aF73.8538441
aF360.0
aa(lp880
F18.5013232
aF73.85389049999999
aF420.0
aa(lp881
F18.5186014
aF73.854552
aF900.0
aa(lp882
F18.5266668
aF73.85234129999999
aF1080.0
aa(lp883
F18.5297581
aF73.8498142
aF1140.0
aa(lp884
F18.5298512
aF73.8511255
aF1200.0
aa(lp885
F18.5303759
aF73.8550638
aF1260.0
aa(lp886
F18.5317982
aF73.8536286
aF1320.0
aa(lp887
F18.5446192
aF73.8768068
aF1620.0
aa(lp888
F18.5452353
aF73.88362149999999
aF1740.0
aa(lp889
F18.5451136
aF73.88477739999999
aF1800.0
aa(lp890
F18.5470865
aF73.8908546
aF1920.0
aa(lp891
F18.5477961
aF73.89010859999999
aF1980.0
aa(lp892
F18.5476982
aF73.89001209999999
aF2040.0
aaa(lp893
(lp894
F18.501961
aF73.815775
aF0.0
aa(lp895
F18.5008725
aF73.8161526
aF60.0
aa(lp896
F18.5037702
aF73.8213458
aF180.0
aa(lp897
F18.5041857
aF73.8211845
aF240.0
aa(lp898
F18.5069899
aF73.8278806
aF360.0
aa(lp899
F18.5104833
aF73.829157
aF420.0
aa(lp900
F18.5106703
aF73.829574
aF480.0
aa(lp901
F18.5201773
aF73.8304253
aF660.0
aa(lp902
F18.5399935
aF73.82961139999999
aF1080.0
aa(lp903
F18.5416175
aF73.829425
aF1140.0
aa(lp904
F18.5418784
aF73.8290671
aF1200.0
aa(lp905
F18.542053
aF73.8284666
aF1260.0
aa(lp906
F18.5378504
aF73.8029114
aF1560.0
aa(lp907
F18.5361506
aF73.80201699999999
aF1620.0
aa(lp908
F18.5306206
aF73.8015961
aF1800.0
aaa(lp909
(lp910
F18.547782
aF73.800822
aF0.0
aa(lp911
F18.5485889
aF73.79945599999999
aF60.0
aa(lp912
F18.5467981
aF73.79934709999999
aF120.0
aa(lp913
F18.551125
aF73.8049005
aF300.0
aa(lp914
F18.542234
aF73.8285112
aF660.0
aa(lp915
F18.539741
aF73.8324402
aF780.0
aa(lp916
F18.5321747
aF73.8428567
aF960.0
aa(lp917
F18.5309006
aF73.847217
aF1020.0
aa(lp918
F18.5302272
aF73.849789
aF1080.0
aa(lp919
F18.5298512
aF73.8511255
aF1140.0
aa(lp920
F18.5289163
aF73.8543789
aF1200.0
aa(lp921
F18.528172
aF73.8575135
aF1260.0
aa(lp922
F18.5279973
aF73.8633726
aF1380.0
aa(lp923
F18.52409
aF73.8701408
aF1560.0
aa(lp924
F18.5249238
aF73.8765667
aF1680.0
aa(lp925
F18.5231781
aF73.88798659999999
aF1920.0
aa(lp926
F18.5231786
aF73.88886670000001
aF1980.0
aa(lp927
F18.5065764
aF73.9068977
aF2400.0
aa(lp928
F18.5185896
aF73.9065735
aF2520.0
aa(lp929
F18.5181843
aF73.9067513
aF2580.0
aa(lp930
F18.5182184
aF73.9079991
aF2640.0
aaa(lp931
(lp932
F18.49265
aF73.895288
aF0.0
aa(lp933
F18.4922931
aF73.8944732
aF60.0
aa(lp934
F18.4910912
aF73.8947931
aF120.0
aa(lp935
F18.4859579
aF73.8892037
aF240.0
aa(lp936
F18.5027644
aF73.8786609
aF540.0
aa(lp937
F18.5018251
aF73.8727919
aF660.0
aa(lp938
F18.5004993
aF73.86669289999999
aF720.0
aa(lp939
F18.5005346
aF73.8585892
aF900.0
aa(lp940
F18.5013094
aF73.8546829
aF1020.0
aa(lp941
F18.501441
aF73.8542136
aF1080.0
aa(lp942
F18.5054538
aF73.8535806
aF1140.0
aa(lp943
F18.5122021
aF73.8438027
aF1440.0
aa(lp944
F18.5127814
aF73.84372139999999
aF1500.0
aa(lp945
F18.5145166
aF73.8423799
aF1560.0
aa(lp946
F18.5137838
aF73.8416364
aF1620.0
aa(lp947
F18.5140348
aF73.84027859999999
aF1680.0
aa(lp948
F18.5142907
aF73.84115059999999
aF1740.0
aaa(lp949
(lp950
F18.520592
aF73.802081
aF0.0
aa(lp951
F18.5160506
aF73.8038404
aF180.0
aa(lp952
F18.5155931
aF73.80588019999999
aF240.0
aa(lp953
F18.5123693
aF73.8059242
aF300.0
aa(lp954
F18.5111145
aF73.81563849999999
aF480.0
aa(lp955
F18.510228
aF73.8158168
aF540.0
aa(lp956
F18.506003
aF73.8253257
aF720.0
aa(lp957
F18.5069899
aF73.8278806
aF780.0
aa(lp958
F18.5104833
aF73.829157
aF840.0
aa(lp959
F18.5106703
aF73.829574
aF900.0
aa(lp960
F18.5201773
aF73.8304253
aF1080.0
aa(lp961
F18.5399935
aF73.82961139999999
aF1500.0
aa(lp962
F18.5416175
aF73.829425
aF1560.0
aa(lp963
F18.5418784
aF73.8290671
aF1620.0
aa(lp964
F18.5499934
aF73.8095723
aF1860.0
aa(lp965
F18.5532844
aF73.8094839
aF1920.0
aa(lp966
F18.5534626
aF73.8075223
aF1980.0
aaa(lp967
(lp968
F18.528986
aF73.823528
aF0.0
aa(lp969
F18.528903
aF73.8234974
aF60.0
aa(lp970
F18.5289328
aF73.82465359999999
aF120.0
aa(lp971
F18.5293392
aF73.82472340000001
aF180.0
aa(lp972
F18.5290574
aF73.8298607
aF300.0
aa(lp973
F18.5299298
aF73.8361462
aF480.0
aa(lp974
F18.5299997
aF73.8374091
aF540.0
aa(lp975
F18.5345342
aF73.8391773
aF660.0
aa(lp976
F18.5321747
aF73.8428567
aF720.0
aa(lp977
F18.5309006
aF73.847217
aF780.0
aa(lp978
F18.5302272
aF73.849789
aF840.0
aa(lp979
F18.5298512
aF73.8511255
aF900.0
aa(lp980
F18.5303759
aF73.8550638
aF960.0
aa(lp981
F18.5317982
aF73.8536286
aF1020.0
aa(lp982
F18.532774
aF73.8561786
aF1080.0
aaa(lp983
(lp984
F18.500913
aF73.89541
aF0.0
aa(lp985
F18.5036275
aF73.89572799999999
aF60.0
aa(lp986
F18.5039616
aF73.8936185
aF120.0
aa(lp987
F18.5063196
aF73.8937917
aF180.0
aa(lp988
F18.5064423
aF73.8887537
aF300.0
aa(lp989
F18.5099752
aF73.8888764
aF360.0
aa(lp990
F18.5106735
aF73.88151979999999
aF480.0
aa(lp991
F18.5180576
aF73.88040509999999
aF600.0
aa(lp992
F18.5279973
aF73.8633726
aF1080.0
aa(lp993
F18.5297274
aF73.8632136
aF1140.0
aa(lp994
F18.529748
aF73.857365
aF1260.0
aa(lp995
F18.5295399
aF73.85318749999999
aF1320.0
aa(lp996
F18.527542
aF73.8514185
aF1380.0
aa(lp997
F18.5275652
aF73.8507529
aF1440.0
aa(lp998
F18.5297581
aF73.8498142
aF1500.0
aa(lp999
F18.5307446
aF73.8473852
aF1560.0
aa(lp1000
F18.5320978
aF73.8428204
aF1620.0
aa(lp1001
F18.5361092
aF73.83701289999999
aF1740.0
aa(lp1002
F18.5317318
aF73.8287625
aF2040.0
aa(lp1003
F18.534749
aF73.8288544
aF2100.0
aa(lp1004
F18.5348396
aF73.8275543
aF2160.0
aaa(lp1005
(lp1006
F18.541786
aF73.839483
aF0.0
aa(lp1007
F18.5413485
aF73.8368626
aF60.0
aa(lp1008
F18.5386332
aF73.8340431
aF120.0
aa(lp1009
F18.5388442
aF73.8335061
aF180.0
aa(lp1010
F18.5407384
aF73.830572
aF240.0
aa(lp1011
F18.5390482
aF73.8299637
aF300.0
aa(lp1012
F18.5364506
aF73.8317347
aF360.0
aa(lp1013
F18.5363209
aF73.8338824
aF420.0
aa(lp1014
F18.5353509
aF73.8337069
aF480.0
aa(lp1015
F18.5353541
aF73.8350116
aF540.0
aaa(lp1016
(lp1017
F18.550742
aF73.808554
aF0.0
aa(lp1018
F18.542234
aF73.8285112
aF300.0
aa(lp1019
F18.5409727
aF73.8306779
aF360.0
aa(lp1020
F18.5203427
aF73.83044869999999
aF780.0
aa(lp1021
F18.5153514
aF73.82884
aF900.0
aa(lp1022
F18.5139463
aF73.8361164
aF1020.0
aa(lp1023
F18.5093814
aF73.8420388
aF1200.0
aa(lp1024
F18.5095797
aF73.8435159
aF1260.0
aa(lp1025
F18.5012384
aF73.8457031
aF1440.0
aa(lp1026
F18.4997343
aF73.8538441
aF1560.0
aa(lp1027
F18.4973765
aF73.85417869999999
aF1620.0
aa(lp1028
F18.4967208
aF73.8578383
aF1680.0
aa(lp1029
F18.4965686
aF73.85895769999999
aF1740.0
aa(lp1030
F18.4931695
aF73.858899
aF1800.0
aa(lp1031
F18.4931891
aF73.8602331
aF1860.0
aaa(lp1032
(lp1033
F18.550698
aF73.840489
aF0.0
aa(lp1034
F18.5508706
aF73.8433393
aF60.0
aa(lp1035
F18.5450877
aF73.84339419999999
aF180.0
aa(lp1036
F18.5449733
aF73.83919829999999
aF240.0
aa(lp1037
F18.5446039
aF73.83882489999999
aF300.0
aa(lp1038
F18.5386332
aF73.8340431
aF420.0
aa(lp1039
F18.5407884
aF73.8307769
aF480.0
aa(lp1040
F18.5420803
aF73.8289324
aF540.0
aa(lp1041
F18.5485259
aF73.8133713
aF720.0
aa(lp1042
F18.5457056
aF73.8134098
aF780.0
aa(lp1043
F18.5456716
aF73.81224259999999
aF840.0
aa(lp1044
F18.545929
aF73.81224100000001
aF900.0
aa(lp1045
F18.5459105
aF73.8092523
aF960.0
aa(lp1046
F18.5488692
aF73.8092772
aF1080.0
aaa(lp1047
(lp1048
F18.49469
aF73.808357
aF0.0
aa(lp1049
F18.4954298
aF73.81141749999999
aF120.0
aa(lp1050
F18.4952638
aF73.81328189999999
aF180.0
aa(lp1051
F18.5069899
aF73.8278806
aF600.0
aa(lp1052
F18.5104833
aF73.829157
aF660.0
aa(lp1053
F18.5106703
aF73.829574
aF720.0
aa(lp1054
F18.5201773
aF73.8304253
aF900.0
aa(lp1055
F18.5399935
aF73.82961139999999
aF1320.0
aa(lp1056
F18.5416175
aF73.829425
aF1380.0
aa(lp1057
F18.5418784
aF73.8290671
aF1440.0
aa(lp1058
F18.5419809
aF73.8287749
aF1500.0
aaa(lp1059
(lp1060
F18.507183
aF73.875264
aF0.0
aa(lp1061
F18.5081753
aF73.87531
aF60.0
aa(lp1062
F18.506985
aF73.8791564
aF180.0
aa(lp1063
F18.5106289
aF73.88008700000002
aF240.0
aa(lp1064
F18.5106735
aF73.88151979999999
aF300.0
aa(lp1065
F18.5100705
aF73.88876619999999
aF420.0
aa(lp1066
F18.5147062
aF73.8905558
aF480.0
aa(lp1067
F18.5141645
aF73.8950705
aF540.0
aa(lp1068
F18.5153523
aF73.8944507
aF600.0
aa(lp1069
F18.5162246
aF73.8965595
aF660.0
aa(lp1070
F18.5161966
aF73.898379
aF720.0
aa(lp1071
F18.5127985
aF73.90097420000001
aF780.0
aa(lp1072
F18.5125861
aF73.9031777
aF840.0
aa(lp1073
F18.5131496
aF73.90373749999999
aF900.0
aa(lp1074
F18.5134451
aF73.9033943
aF960.0
aa(lp1075
F18.5140652
aF73.9034769
aF1020.0
aa(lp1076
F18.5140939
aF73.90308739999999
aF1080.0
aaa(lp1077
(lp1078
F18.508162
aF73.888692
aF0.0
aa(lp1079
F18.5125759
aF73.889331
aF60.0
aa(lp1080
F18.5133558
aF73.88622939999999
aF120.0
aa(lp1081
F18.5183397
aF73.8877167
aF180.0
aa(lp1082
F18.5222723
aF73.885468
aF240.0
aa(lp1083
F18.5232894
aF73.88600550000001
aF300.0
aa(lp1084
F18.5246036
aF73.8787359
aF420.0
aa(lp1085
F18.5229052
aF73.8782106
aF480.0
aaa(lp1086
(lp1087
F18.511668
aF73.880615
aF0.0
aa(lp1088
F18.5065654
aF73.88166249999999
aF120.0
aa(lp1089
F18.5002526
aF73.8839804
aF240.0
aa(lp1090
F18.4989748
aF73.88501649999999
aF300.0
aa(lp1091
F18.4989336
aF73.8868724
aF360.0
aa(lp1092
F18.4958141
aF73.8875413
aF420.0
aa(lp1093
F18.4957072
aF73.8884743
aF480.0
aaa(lp1094
(lp1095
F18.551272
aF73.904979
aF0.0
aa(lp1096
F18.5509382
aF73.9057246
aF60.0
aa(lp1097
F18.5542181
aF73.9060894
aF120.0
aa(lp1098
F18.5549384
aF73.90562930000002
aF180.0
aa(lp1099
F18.5521634
aF73.89659759999999
aF360.0
aa(lp1100
F18.5526312
aF73.8896524
aF480.0
aa(lp1101
F18.5528624
aF73.8797049
aF660.0
aa(lp1102
F18.5501375
aF73.8787437
aF720.0
aa(lp1103
F18.531965
aF73.8538019
aF1140.0
aa(lp1104
F18.5304493
aF73.8552138
aF1200.0
aa(lp1105
F18.5272999
aF73.8511517
aF1320.0
aa(lp1106
F18.522846
aF73.848166
aF1440.0
aa(lp1107
F18.5160815
aF73.8425117
aF1620.0
aa(lp1108
F18.5159379
aF73.8419979
aF1680.0
aa(lp1109
F18.5164242
aF73.84185339999999
aF1740.0
aa(lp1110
F18.5161666
aF73.8408421
aF1800.0
aa(lp1111
F18.5158477
aF73.8409361
aF1860.0
aa(lp1112
F18.5160298
aF73.839475
aF1920.0
aaa(lp1113
(lp1114
F18.5222
aF73.86062
aF0.0
aa(lp1115
F18.5233417
aF73.8582508
aF60.0
aa(lp1116
F18.5239988
aF73.858096
aF120.0
aa(lp1117
F18.5278858
aF73.8633753
aF240.0
aa(lp1118
F18.5297274
aF73.8632136
aF300.0
aa(lp1119
F18.5308132
aF73.8755876
aF540.0
aa(lp1120
F18.5347475
aF73.87952949999999
aF660.0
aa(lp1121
F18.5359823
aF73.8837739
aF780.0
aa(lp1122
F18.5329985
aF73.8856449
aF900.0
aa(lp1123
F18.5331781
aF73.8902914
aF960.0
aaa(lp1124
(lp1125
F18.515859
aF73.85106
aF0.0
aa(lp1126
F18.5153635
aF73.85008309999999
aF60.0
aa(lp1127
F18.5142132
aF73.8501509
aF120.0
aa(lp1128
F18.5134752
aF73.84528139999999
aF240.0
aa(lp1129
F18.5116042
aF73.84581279999999
aF300.0
aa(lp1130
F18.5114657
aF73.8450531
aF360.0
aa(lp1131
F18.507759
aF73.85052019999999
aF540.0
aa(lp1132
F18.5012106
aF73.85077179999999
aF720.0
aa(lp1133
F18.4979585
aF73.8510759
aF780.0
aa(lp1134
F18.4974788
aF73.85101449999999
aF840.0
aa(lp1135
F18.4974723
aF73.8522615
aF900.0
aa(lp1136
F18.4961524
aF73.8518606
aF960.0
aaa(lp1137
(lp1138
F18.530373
aF73.890103
aF0.0
aa(lp1139
F18.5286218
aF73.8907373
aF60.0
aa(lp1140
F18.5285486
aF73.8918601
aF120.0
aa(lp1141
F18.5266399
aF73.8916662
aF180.0
aa(lp1142
F18.5250028
aF73.8932907
aF240.0
aa(lp1143
F18.5231261
aF73.8889937
aF300.0
aa(lp1144
F18.5231781
aF73.88798659999999
aF360.0
aa(lp1145
F18.5283225
aF73.88534969999999
aF480.0
aa(lp1146
F18.5283839
aF73.8762392
aF660.0
aa(lp1147
F18.5307515
aF73.8756569
aF720.0
aa(lp1148
F18.529748
aF73.857365
aF1020.0
aa(lp1149
F18.5295399
aF73.85318749999999
aF1080.0
aa(lp1150
F18.5272999
aF73.8511517
aF1140.0
aa(lp1151
F18.522846
aF73.848166
aF1260.0
aa(lp1152
F18.5160815
aF73.8425117
aF1440.0
aa(lp1153
F18.5146961
aF73.84241089999999
aF1500.0
aa(lp1154
F18.5086173
aF73.8313994
aF1800.0
aa(lp1155
F18.5058369
aF73.8328769
aF1860.0
aa(lp1156
F18.5041307
aF73.8308026
aF1920.0
aa(lp1157
F18.5038898
aF73.8310333
aF1980.0
aa(lp1158
F18.5010163
aF73.830812
aF2040.0
aaa(lp1159
(lp1160
F18.540758
aF73.822372
aF0.0
aa(lp1161
F18.541076
aF73.82204089999999
aF60.0
aa(lp1162
F18.542234
aF73.8285112
aF240.0
aa(lp1163
F18.539741
aF73.8324402
aF300.0
aa(lp1164
F18.5321747
aF73.8428567
aF480.0
aa(lp1165
F18.5309006
aF73.847217
aF540.0
aa(lp1166
F18.5302272
aF73.849789
aF600.0
aa(lp1167
F18.5298512
aF73.8511255
aF660.0
aa(lp1168
F18.5289163
aF73.8543789
aF720.0
aa(lp1169
F18.528172
aF73.8575135
aF780.0
aa(lp1170
F18.5279973
aF73.8633726
aF900.0
aa(lp1171
F18.52409
aF73.8701408
aF1080.0
aa(lp1172
F18.5242939
aF73.8704456
aF1140.0
aaa(lp1173
(lp1174
F18.534483
aF73.873752
aF0.0
aa(lp1175
F18.5305305
aF73.87464899999999
aF120.0
aa(lp1176
F18.5308132
aF73.8755876
aF180.0
aa(lp1177
F18.529748
aF73.857365
aF480.0
aa(lp1178
F18.5295399
aF73.85318749999999
aF540.0
aa(lp1179
F18.527542
aF73.8514185
aF600.0
aa(lp1180
F18.5275652
aF73.8507529
aF660.0
aa(lp1181
F18.5297581
aF73.8498142
aF720.0
aa(lp1182
F18.5307446
aF73.8473852
aF780.0
aa(lp1183
F18.5318751
aF73.8430544
aF840.0
aa(lp1184
F18.5299102
aF73.83540599999999
aF1020.0
aa(lp1185
F18.5290593
aF73.82998669999999
aF1140.0
aa(lp1186
F18.5292151
aF73.8266348
aF1260.0
aa(lp1187
F18.5283615
aF73.8265243
aF1320.0
aa(lp1188
F18.5285018
aF73.82511040000001
aF1380.0
aa(lp1189
F18.5282897
aF73.8251008
aF1440.0
aa(lp1190
F18.5282744
aF73.8244563
aF1500.0
aa(lp1191
F18.5280879
aF73.8244343
aF1560.0
aa(lp1192
F18.5281011
aF73.8241997
aF1620.0
aa(lp1193
F18.5275941
aF73.82419949999999
aF1680.0
aaa(lp1194
(lp1195
F18.528387
aF73.800732
aF0.0
aa(lp1196
F18.5361506
aF73.80201699999999
aF240.0
aa(lp1197
F18.5361316
aF73.8019273
aF300.0
aa(lp1198
F18.5378655
aF73.80281049999999
aF360.0
aa(lp1199
F18.542234
aF73.8285112
aF780.0
aa(lp1200
F18.5409727
aF73.8306779
aF840.0
aa(lp1201
F18.5203427
aF73.83044869999999
aF1260.0
aa(lp1202
F18.5084362
aF73.8308409
aF1560.0
aa(lp1203
F18.5068991
aF73.82786150000001
aF1620.0
aa(lp1204
F18.5037702
aF73.8213458
aF1740.0
aa(lp1205
F18.5008995
aF73.82214259999999
aF1800.0
aa(lp1206
F18.5008718
aF73.821516
aF1860.0
aaa(lp1207
(lp1208
F18.501675
aF73.79919
aF0.0
aa(lp1209
F18.5017865
aF73.799523
aF60.0
aa(lp1210
F18.50293
aF73.79966689999999
aF120.0
aa(lp1211
F18.5023287
aF73.80235789999999
aF180.0
aa(lp1212
F18.4961981
aF73.802082
aF300.0
aa(lp1213
F18.4942061
aF73.8081124
aF420.0
aaa(lp1214
(lp1215
F18.500192
aF73.875995
aF0.0
aa(lp1216
F18.500977
aF73.8754764
aF60.0
aa(lp1217
F18.5019715
aF73.8752052
aF120.0
aa(lp1218
F18.5018251
aF73.8727919
aF180.0
aa(lp1219
F18.5004993
aF73.86669289999999
aF240.0
aa(lp1220
F18.5004805
aF73.8590226
aF420.0
aa(lp1221
F18.4996489
aF73.85849089999999
aF480.0
aa(lp1222
F18.4967058
aF73.8581226
aF600.0
aa(lp1223
F18.4966715
aF73.857412
aF660.0
aa(lp1224
F18.4963244
aF73.8554189
aF720.0
aa(lp1225
F18.4958167
aF73.8553491
aF780.0
aa(lp1226
F18.4957797
aF73.8561921
aF840.0
aa(lp1227
F18.4954275
aF73.8561512
aF900.0
aaa(lp1228
(lp1229
F18.511726
aF73.855789
aF0.0
aa(lp1230
F18.5118646
aF73.8551083
aF60.0
aa(lp1231
F18.5134088
aF73.8550922
aF120.0
aa(lp1232
F18.513342
aF73.853843
aF180.0
aa(lp1233
F18.5145406
aF73.8537788
aF240.0
aa(lp1234
F18.5128466
aF73.84384519999999
aF540.0
aa(lp1235
F18.5145166
aF73.8423799
aF600.0
aa(lp1236
F18.5068136
aF73.8276525
aF960.0
aa(lp1237
F18.5058458
aF73.82554069999999
aF1020.0
aa(lp1238
F18.5020234
aF73.8154532
aF1260.0
aa(lp1239
F18.5019216
aF73.81077300000001
aF1380.0
aa(lp1240
F18.5020163
aF73.8103598
aF1440.0
aa(lp1241
F18.5020636
aF73.8049503
aF1500.0
aa(lp1242
F18.4986021
aF73.8044142
aF1560.0
aa(lp1243
F18.4986244
aF73.80316979999999
aF1620.0
aaa(lp1244
(lp1245
F18.514884
aF73.812477
aF0.0
aa(lp1246
F18.5127934
aF73.815485
aF180.0
aa(lp1247
F18.510228
aF73.8158168
aF240.0
aa(lp1248
F18.506003
aF73.8253257
aF420.0
aa(lp1249
F18.5086638
aF73.8312572
aF540.0
aa(lp1250
F18.5047046
aF73.8340182
aF660.0
aa(lp1251
F18.5046894
aF73.83888209999999
aF720.0
aa(lp1252
F18.503338
aF73.8388334
aF780.0
aa(lp1253
F18.5029195
aF73.8392191
aF840.0
aa(lp1254
F18.5009912
aF73.8391637
aF900.0
aa(lp1255
F18.5009613
aF73.8421456
aF1020.0
aa(lp1256
F18.499696
aF73.8421379
aF1080.0
aa(lp1257
F18.4998737
aF73.8427505
aF1140.0
aa(lp1258
F18.5013687
aF73.84333579999999
aF1200.0
aaa(lp1259
(lp1260
F18.5166
aF73.825242
aF0.0
aa(lp1261
F18.5149755
aF73.8287766
aF120.0
aa(lp1262
F18.5153514
aF73.82884
aF180.0
aa(lp1263
F18.5138292
aF73.8415304
aF420.0
aa(lp1264
F18.5146342
aF73.8423354
aF480.0
aa(lp1265
F18.5128466
aF73.84384519999999
aF540.0
aa(lp1266
F18.516375
aF73.85229670000001
aF780.0
aa(lp1267
F18.5144852
aF73.85234969999999
aF840.0
aa(lp1268
F18.5143925
aF73.8516198
aF900.0
aaa(lp1269
(lp1270
F18.539794
aF73.87072
aF0.0
aa(lp1271
F18.531965
aF73.8538019
aF240.0
aa(lp1272
F18.5304493
aF73.8552138
aF300.0
aa(lp1273
F18.5272999
aF73.8511517
aF420.0
aa(lp1274
F18.5249709
aF73.8495336
aF480.0
aa(lp1275
F18.5269352
aF73.84220010000001
aF660.0
aa(lp1276
F18.5271748
aF73.8377702
aF780.0
aa(lp1277
F18.5266724
aF73.83745139999999
aF840.0
aa(lp1278
F18.5257142
aF73.8306867
aF1020.0
aaa(lp1279
(lp1280
F18.519497
aF73.902257
aF0.0
aa(lp1281
F18.517416
aF73.9015138
aF60.0
aa(lp1282
F18.5162246
aF73.8965595
aF180.0
aa(lp1283
F18.5153523
aF73.8944507
aF240.0
aa(lp1284
F18.5141645
aF73.8950705
aF300.0
aa(lp1285
F18.5151816
aF73.8915142
aF360.0
aa(lp1286
F18.5147062
aF73.8905558
aF420.0
aa(lp1287
F18.5102009
aF73.8888924
aF480.0
aa(lp1288
F18.5064866
aF73.8898713
aF540.0
aa(lp1289
F18.5064942
aF73.884304
aF660.0
aa(lp1290
F18.5036841
aF73.88019229999999
aF780.0
aa(lp1291
F18.5016638
aF73.8810144
aF840.0
aaa(lp1292
(lp1293
F18.513101
aF73.862989
aF0.0
aa(lp1294
F18.5107861
aF73.868342
aF180.0
aa(lp1295
F18.5130576
aF73.8686922
aF240.0
aa(lp1296
F18.5116222
aF73.8699511
aF300.0
aa(lp1297
F18.5106827
aF73.8721094
aF360.0
aa(lp1298
F18.5093748
aF73.87227779999999
aF420.0
aa(lp1299
F18.506985
aF73.8791564
aF660.0
aa(lp1300
F18.5065654
aF73.88166249999999
aF720.0
aa(lp1301
F18.5002526
aF73.8839804
aF840.0
aa(lp1302
F18.4989084
aF73.8801184
aF900.0
aa(lp1303
F18.4981048
aF73.8808244
aF960.0
aa(lp1304
F18.4953515
aF73.8805459
aF1080.0
aa(lp1305
F18.4946288
aF73.88074069999999
aF1140.0
aaa(lp1306
(lp1307
F18.496201
aF73.824522
aF0.0
aa(lp1308
F18.4960385
aF73.826037
aF60.0
aa(lp1309
F18.4981224
aF73.8264769
aF120.0
aa(lp1310
F18.4980632
aF73.8269202
aF180.0
aa(lp1311
F18.5014274
aF73.8264676
aF240.0
aa(lp1312
F18.5016118
aF73.8267771
aF300.0
aa(lp1313
F18.5056695
aF73.8251207
aF420.0
aa(lp1314
F18.5069899
aF73.8278806
aF480.0
aa(lp1315
F18.5104833
aF73.829157
aF540.0
aa(lp1316
F18.5106703
aF73.829574
aF600.0
aa(lp1317
F18.5201773
aF73.8304253
aF780.0
aa(lp1318
F18.5290574
aF73.8298607
aF960.0
aa(lp1319
F18.5292974
aF73.8235195
aF1140.0
aa(lp1320
F18.5301151
aF73.823392
aF1200.0
aa(lp1321
F18.5300723
aF73.8229437
aF1260.0
aa(lp1322
F18.5308293
aF73.8228331
aF1320.0
aa(lp1323
F18.5331205
aF73.8213578
aF1440.0
aaa(lp1324
(lp1325
F18.544354
aF73.881982
aF0.0
aa(lp1326
F18.5448233
aF73.87707999999999
aF60.0
aa(lp1327
F18.531965
aF73.8538019
aF360.0
aa(lp1328
F18.5304493
aF73.8552138
aF420.0
aa(lp1329
F18.5272999
aF73.8511517
aF540.0
aa(lp1330
F18.522846
aF73.848166
aF660.0
aa(lp1331
F18.5160815
aF73.8425117
aF840.0
aa(lp1332
F18.5146961
aF73.84241089999999
aF900.0
aa(lp1333
F18.5068991
aF73.82786150000001
aF1260.0
aa(lp1334
F18.5037702
aF73.8213458
aF1380.0
aa(lp1335
F18.4978309
aF73.8235556
aF1500.0
aa(lp1336
F18.4974666
aF73.8223891
aF1560.0
aa(lp1337
F18.4917351
aF73.8211334
aF1620.0
aa(lp1338
F18.4921803
aF73.8199327
aF1680.0
aa(lp1339
F18.4917417
aF73.8198142
aF1740.0
aa(lp1340
F18.4918548
aF73.8194431
aF1800.0
aaa(lp1341
(lp1342
F18.512462
aF73.831872
aF0.0
aa(lp1343
F18.5126156
aF73.8315679
aF60.0
aa(lp1344
F18.5143558
aF73.83175910000001
aF120.0
aa(lp1345
F18.5145061
aF73.83111530000001
aF180.0
aa(lp1346
F18.5106703
aF73.829574
aF300.0
aa(lp1347
F18.5084362
aF73.8308409
aF360.0
aa(lp1348
F18.5068136
aF73.8276525
aF420.0
aa(lp1349
F18.5066045
aF73.82400559999999
aF480.0
aa(lp1350
F18.5077153
aF73.8230421
aF540.0
aa(lp1351
F18.5081967
aF73.8231162
aF600.0
aa(lp1352
F18.5127193
aF73.8230565
aF720.0
aa(lp1353
F18.5124322
aF73.8218302
aF780.0
aa(lp1354
F18.5124469
aF73.8218139
aF840.0
aa(lp1355
F18.5129948
aF73.8174464
aF960.0
aa(lp1356
F18.5137478
aF73.81716709999999
aF1020.0
aa(lp1357
F18.5137901
aF73.8167251
aF1080.0
aa(lp1358
F18.5140732
aF73.81674819999999
aF1140.0
aaa(lp1359
(lp1360
F18.499771
aF73.809863
aF0.0
aa(lp1361
F18.4997222
aF73.8097488
aF60.0
aa(lp1362
F18.4999122
aF73.8098266
aF120.0
aa(lp1363
F18.4999387
aF73.80954
aF180.0
aa(lp1364
F18.502033
aF73.80957029999999
aF240.0
aa(lp1365
F18.5020025
aF73.81065559999999
aF300.0
aa(lp1366
F18.5022479
aF73.812259
aF360.0
aa(lp1367
F18.5030323
aF73.8121635
aF420.0
aaa(lp1368
(lp1369
F18.540397
aF73.844981
aF0.0
aa(lp1370
F18.539253
aF73.8477755
aF60.0
aa(lp1371
F18.5360082
aF73.8473571
aF180.0
aa(lp1372
F18.5353435
aF73.84870169999999
aF240.0
aa(lp1373
F18.5352038
aF73.84855879999999
aF300.0
aa(lp1374
F18.5302272
aF73.849789
aF480.0
aa(lp1375
F18.5298512
aF73.8511255
aF540.0
aa(lp1376
F18.5289163
aF73.8543789
aF600.0
aa(lp1377
F18.528172
aF73.8575135
aF660.0
aa(lp1378
F18.5279973
aF73.8633726
aF780.0
aa(lp1379
F18.52409
aF73.8701408
aF960.0
aa(lp1380
F18.5249238
aF73.8765667
aF1080.0
aa(lp1381
F18.5231781
aF73.88798659999999
aF1320.0
aa(lp1382
F18.5231786
aF73.88886670000001
aF1380.0
aa(lp1383
F18.5066199
aF73.9010198
aF1740.0
aa(lp1384
F18.5019014
aF73.9007209
aF1920.0
aa(lp1385
F18.5017883
aF73.9028271
aF1980.0
aa(lp1386
F18.5013338
aF73.90286929999999
aF2040.0
aaa(lp1387
(lp1388
F18.507146
aF73.838155
aF0.0
aa(lp1389
F18.5046848
aF73.8381203
aF120.0
aa(lp1390
F18.5049545
aF73.8421579
aF180.0
aa(lp1391
F18.5032673
aF73.8452171
aF300.0
aa(lp1392
F18.504057
aF73.8552754
aF540.0
aa(lp1393
F18.5010322
aF73.8584927
aF660.0
aa(lp1394
F18.5009066
aF73.8584794
aF720.0
aa(lp1395
F18.5005577
aF73.8666047
aF900.0
aa(lp1396
F18.5019152
aF73.8728198
aF960.0
aa(lp1397
F18.5028422
aF73.8786532
aF1080.0
aa(lp1398
F18.506985
aF73.8791564
aF1200.0
aa(lp1399
F18.5066503
aF73.89524109999999
aF1500.0
aaa(lp1400
(lp1401
F18.54782
aF73.848898
aF0.0
aa(lp1402
F18.5449733
aF73.83919829999999
aF120.0
aa(lp1403
F18.5446039
aF73.83882489999999
aF180.0
aa(lp1404
F18.5386332
aF73.8340431
aF300.0
aa(lp1405
F18.5321747
aF73.8428567
aF420.0
aa(lp1406
F18.5309006
aF73.847217
aF480.0
aa(lp1407
F18.5302272
aF73.849789
aF540.0
aa(lp1408
F18.5298512
aF73.8511255
aF600.0
aa(lp1409
F18.5295359
aF73.8518632
aF660.0
aaa(lp1410
(lp1411
F18.511928
aF73.824341
aF0.0
aa(lp1412
F18.5107153
aF73.8251666
aF60.0
aa(lp1413
F18.5106703
aF73.829574
aF180.0
aa(lp1414
F18.5084362
aF73.8308409
aF240.0
aa(lp1415
F18.5146342
aF73.8423354
aF540.0
aa(lp1416
F18.5128466
aF73.84384519999999
aF600.0
aa(lp1417
F18.5147071
aF73.8455589
aF660.0
aa(lp1418
F18.5151797
aF73.8448446
aF720.0
aa(lp1419
F18.519942
aF73.84866199999999
aF780.0
aa(lp1420
F18.5210478
aF73.8535079
aF840.0
aa(lp1421
F18.5204022
aF73.8537022
aF900.0
aa(lp1422
F18.5204154
aF73.8541726
aF960.0
aa(lp1423
F18.5202074
aF73.85449
aF1020.0
aa(lp1424
F18.5210137
aF73.8552179
aF1080.0
aa(lp1425
F18.5185516
aF73.85618939999999
aF1140.0
aa(lp1426
F18.5192094
aF73.861538
aF1260.0
aa(lp1427
F18.5160992
aF73.861858
aF1380.0
aa(lp1428
F18.5162334
aF73.8709527
aF1680.0
aa(lp1429
F18.5144915
aF73.8711892
aF1740.0
aa(lp1430
F18.5145535
aF73.8735263
aF1800.0
aa(lp1431
F18.5143432
aF73.8736085
aF1860.0
aaa(lp1432
(lp1433
F18.505412
aF73.843971
aF0.0
aa(lp1434
F18.505508
aF73.8447638
aF60.0
aa(lp1435
F18.5127814
aF73.84372139999999
aF300.0
aa(lp1436
F18.5147071
aF73.8455589
aF420.0
aa(lp1437
F18.5151797
aF73.8448446
aF480.0
aa(lp1438
F18.519942
aF73.84866199999999
aF540.0
aa(lp1439
F18.5210478
aF73.8535079
aF600.0
aa(lp1440
F18.5204022
aF73.8537022
aF660.0
aa(lp1441
F18.5204154
aF73.8541726
aF720.0
aa(lp1442
F18.5202074
aF73.85449
aF780.0
aa(lp1443
F18.5215152
aF73.8550826
aF840.0
aa(lp1444
F18.5278858
aF73.8633753
aF1080.0
aa(lp1445
F18.5297274
aF73.8632136
aF1140.0
aa(lp1446
F18.5308132
aF73.8755876
aF1380.0
aa(lp1447
F18.5347475
aF73.87952949999999
aF1500.0
aa(lp1448
F18.5359823
aF73.8837739
aF1620.0
aa(lp1449
F18.5329985
aF73.8856449
aF1740.0
aa(lp1450
F18.532759
aF73.8992237
aF1980.0
aa(lp1451
F18.5350129
aF73.8997327
aF2040.0
aaa(lp1452
(lp1453
F18.51366
aF73.800013
aF0.0
aa(lp1454
F18.5126738
aF73.8030471
aF60.0
aa(lp1455
F18.5089552
aF73.8035101
aF180.0
aa(lp1456
F18.5071128
aF73.8036723
aF240.0
aa(lp1457
F18.506003
aF73.8253257
aF660.0
aa(lp1458
F18.5086638
aF73.8312572
aF780.0
aa(lp1459
F18.5047046
aF73.8340182
aF900.0
aa(lp1460
F18.5050156
aF73.8397207
aF960.0
aa(lp1461
F18.5049545
aF73.8421579
aF1020.0
aa(lp1462
F18.5032673
aF73.8452171
aF1140.0
aa(lp1463
F18.504057
aF73.8552754
aF1380.0
aa(lp1464
F18.5010322
aF73.8584927
aF1500.0
aa(lp1465
F18.5009066
aF73.8584794
aF1560.0
aa(lp1466
F18.5005577
aF73.8666047
aF1740.0
aa(lp1467
F18.5019152
aF73.8728198
aF1800.0
aa(lp1468
F18.5028422
aF73.8786532
aF1920.0
aa(lp1469
F18.506985
aF73.8791564
aF2040.0
aa(lp1470
F18.5106289
aF73.88008700000002
aF2100.0
aa(lp1471
F18.5106735
aF73.88151979999999
aF2160.0
aa(lp1472
F18.5100705
aF73.88876619999999
aF2280.0
aa(lp1473
F18.5147062
aF73.8905558
aF2340.0
aa(lp1474
F18.5147655
aF73.8931834
aF2400.0
aaa(lp1475
(lp1476
F18.521226
aF73.825624
aF0.0
aa(lp1477
F18.5234893
aF73.824951
aF60.0
aa(lp1478
F18.5252281
aF73.829627
aF180.0
aa(lp1479
F18.5203427
aF73.83044869999999
aF300.0
aa(lp1480
F18.5153514
aF73.82884
aF420.0
aa(lp1481
F18.5138292
aF73.8415304
aF660.0
aa(lp1482
F18.5146342
aF73.8423354
aF720.0
aa(lp1483
F18.5128466
aF73.84384519999999
aF780.0
aa(lp1484
F18.5128938
aF73.8439181
aF840.0
aa(lp1485
F18.5129708
aF73.8455652
aF900.0
aa(lp1486
F18.5123042
aF73.8456326
aF960.0
aa(lp1487
F18.5123911
aF73.8465391
aF1020.0
aaa(lp1488
(lp1489
F18.519
aF73.875097
aF0.0
aa(lp1490
F18.5297274
aF73.8632136
aF420.0
aa(lp1491
F18.529748
aF73.857365
aF540.0
aa(lp1492
F18.5295399
aF73.85318749999999
aF600.0
aa(lp1493
F18.527542
aF73.8514185
aF660.0
aa(lp1494
F18.5275652
aF73.8507529
aF720.0
aa(lp1495
F18.5297581
aF73.8498142
aF780.0
aa(lp1496
F18.5307446
aF73.8473852
aF840.0
aa(lp1497
F18.5320978
aF73.8428204
aF900.0
aa(lp1498
F18.5407884
aF73.8307769
aF1140.0
aa(lp1499
F18.5418784
aF73.8290671
aF1200.0
aa(lp1500
F18.542053
aF73.8284666
aF1260.0
aa(lp1501
F18.5377969
aF73.7964193
aF1620.0
aa(lp1502
F18.538108
aF73.7996182
aF1680.0
aa(lp1503
F18.540238
aF73.79983229999999
aF1740.0
aaa(lp1504
(lp1505
F18.513054
aF73.818627
aF0.0
aa(lp1506
F18.5128424
aF73.81850469999999
aF60.0
aa(lp1507
F18.5124817
aF73.8199195
aF120.0
aa(lp1508
F18.5109085
aF73.8196404
aF180.0
aa(lp1509
F18.506003
aF73.8253257
aF300.0
aa(lp1510
F18.5041857
aF73.8211845
aF420.0
aa(lp1511
F18.4978309
aF73.8235556
aF600.0
aa(lp1512
F18.4982078
aF73.8260677
aF660.0
aa(lp1513
F18.4981224
aF73.8264769
aF720.0
aa(lp1514
F18.4932388
aF73.8253403
aF840.0
aa(lp1515
F18.4927422
aF73.8276398
aF900.0
aa(lp1516
F18.4920926
aF73.8274393
aF960.0
aaa(lp1517
(lp1518
F18.542306
aF73.815264
aF0.0
aa(lp1519
F18.5417333
aF73.8141741
aF60.0
aa(lp1520
F18.5398333
aF73.8152732
aF120.0
aa(lp1521
F18.5377969
aF73.7964193
aF360.0
aa(lp1522
F18.5076046
aF73.783607
aF960.0
aa(lp1523
F18.5077844
aF73.7975549
aF1200.0
aa(lp1524
F18.5030845
aF73.79761719999999
aF1320.0
aa(lp1525
F18.5033319
aF73.79610579999999
aF1380.0
aa(lp1526
F18.5009245
aF73.7959327
aF1440.0
aa(lp1527
F18.5004275
aF73.79989599999999
aF1560.0
aa(lp1528
F18.4996908
aF73.7998009
aF1620.0
aaa(lp1529
(lp1530
F18.512298
aF73.800587
aF0.0
aa(lp1531
F18.5126738
aF73.8030471
aF60.0
aa(lp1532
F18.5089552
aF73.8035101
aF180.0
aa(lp1533
F18.5071128
aF73.8036723
aF240.0
aa(lp1534
F18.506003
aF73.8253257
aF660.0
aa(lp1535
F18.5146342
aF73.8423354
aF1020.0
aa(lp1536
F18.5128466
aF73.84384519999999
aF1080.0
aa(lp1537
F18.5147071
aF73.8455589
aF1140.0
aa(lp1538
F18.5151797
aF73.8448446
aF1200.0
aa(lp1539
F18.519942
aF73.84866199999999
aF1260.0
aa(lp1540
F18.5210478
aF73.8535079
aF1320.0
aa(lp1541
F18.5204022
aF73.8537022
aF1380.0
aa(lp1542
F18.5204154
aF73.8541726
aF1440.0
aa(lp1543
F18.5202074
aF73.85449
aF1500.0
aa(lp1544
F18.5215152
aF73.8550826
aF1560.0
aa(lp1545
F18.5278858
aF73.8633753
aF1800.0
aa(lp1546
F18.5297274
aF73.8632136
aF1860.0
aa(lp1547
F18.5308132
aF73.8755876
aF2100.0
aa(lp1548
F18.5347475
aF73.87952949999999
aF2220.0
aa(lp1549
F18.5380521
aF73.8854367
aF2340.0
aa(lp1550
F18.5393859
aF73.8853733
aF2400.0
aa(lp1551
F18.5395748
aF73.8875869
aF2460.0
aa(lp1552
F18.5397282
aF73.88947230000001
aF2520.0
aa(lp1553
F18.539438
aF73.8973051
aF2640.0
aa(lp1554
F18.5365953
aF73.89714479999999
aF2700.0
aa(lp1555
F18.5366003
aF73.8967562
aF2760.0
aa(lp1556
F18.5373307
aF73.89676
aF2820.0
aaa(lp1557
(lp1558
F18.49309
aF73.899473
aF0.0
aa(lp1559
F18.492099
aF73.8985272
aF60.0
aa(lp1560
F18.4922931
aF73.8944732
aF120.0
aa(lp1561
F18.4910912
aF73.8947931
aF180.0
aa(lp1562
F18.4859579
aF73.8892037
aF300.0
aa(lp1563
F18.5027644
aF73.8786609
aF600.0
aa(lp1564
F18.5019715
aF73.8752052
aF660.0
aa(lp1565
F18.5056909
aF73.8745359
aF780.0
aa(lp1566
F18.5044901
aF73.8730889
aF840.0
aa(lp1567
F18.5033757
aF73.8736818
aF900.0
aa(lp1568
F18.5024833
aF73.87445029999999
aF960.0
aaa(lp1569
(lp1570
F18.509721
aF73.904074
aF0.0
aa(lp1571
F18.5097428
aF73.8974099
aF120.0
aa(lp1572
F18.5231781
aF73.88798659999999
aF360.0
aa(lp1573
F18.5283225
aF73.88534969999999
aF480.0
aa(lp1574
F18.5412344
aF73.88443149999999
aF720.0
aa(lp1575
F18.5448518
aF73.8832869
aF780.0
aa(lp1576
F18.5526211
aF73.8649358
aF1140.0
aa(lp1577
F18.5451009
aF73.85639929999999
aF1380.0
aaa(lp1578
(lp1579
F18.542838
aF73.831307
aF0.0
aa(lp1580
F18.5419896
aF73.8291891
aF60.0
aa(lp1581
F18.539741
aF73.8324402
aF120.0
aa(lp1582
F18.5321747
aF73.8428567
aF300.0
aa(lp1583
F18.5309006
aF73.847217
aF360.0
aa(lp1584
F18.5302272
aF73.849789
aF420.0
aa(lp1585
F18.5298512
aF73.8511255
aF480.0
aa(lp1586
F18.5303759
aF73.8550638
aF540.0
aa(lp1587
F18.5317982
aF73.8536286
aF600.0
aa(lp1588
F18.5446192
aF73.8768068
aF900.0
aa(lp1589
F18.5452353
aF73.88362149999999
aF1020.0
aa(lp1590
F18.5451136
aF73.88477739999999
aF1080.0
aa(lp1591
F18.5448717
aF73.88477139999999
aF1140.0
aa(lp1592
F18.5416107
aF73.8853852
aF1200.0
aa(lp1593
F18.5393982
aF73.88549669999999
aF1260.0
aa(lp1594
F18.5395748
aF73.8875869
aF1320.0
aa(lp1595
F18.5397282
aF73.88947230000001
aF1380.0
aa(lp1596
F18.539438
aF73.8973051
aF1500.0
aa(lp1597
F18.5365953
aF73.89714479999999
aF1560.0
aa(lp1598
F18.5366003
aF73.8967562
aF1620.0
aa(lp1599
F18.5373307
aF73.89676
aF1680.0
aaa(lp1600
(lp1601
F18.499486
aF73.87771
aF0.0
aa(lp1602
F18.4989531
aF73.87787349999999
aF60.0
aa(lp1603
F18.4971639
aF73.8768934
aF120.0
aa(lp1604
F18.4930243
aF73.8693349
aF300.0
aa(lp1605
F18.4895365
aF73.87013739999999
aF360.0
aa(lp1606
F18.4892978
aF73.8575331
aF600.0
aa(lp1607
F18.4924655
aF73.8576293
aF720.0
aa(lp1608
F18.4926564
aF73.84988349999999
aF900.0
aa(lp1609
F18.4915453
aF73.8498359
aF960.0
aa(lp1610
F18.4897703
aF73.8436972
aF1080.0
aa(lp1611
F18.4900692
aF73.84345859999999
aF1140.0
aa(lp1612
F18.4912967
aF73.8440632
aF1200.0
aa(lp1613
F18.4912216
aF73.84337409999999
aF1260.0
aa(lp1614
F18.4920313
aF73.84378099999999
aF1320.0
aaa(lp1615
(lp1616
F18.532612
aF73.811643
aF0.0
aa(lp1617
F18.5329354
aF73.8115328
aF60.0
aa(lp1618
F18.532951
aF73.811238
aF120.0
aa(lp1619
F18.5371181
aF73.80962029999999
aF240.0
aa(lp1620
F18.5391537
aF73.809451
aF300.0
aa(lp1621
F18.542234
aF73.8285112
aF600.0
aa(lp1622
F18.539741
aF73.8324402
aF660.0
aa(lp1623
F18.5321747
aF73.8428567
aF840.0
aa(lp1624
F18.5309006
aF73.847217
aF900.0
aa(lp1625
F18.5302272
aF73.849789
aF960.0
aa(lp1626
F18.5298512
aF73.8511255
aF1020.0
aa(lp1627
F18.5289163
aF73.8543789
aF1080.0
aa(lp1628
F18.528172
aF73.8575135
aF1140.0
aa(lp1629
F18.5279973
aF73.8633726
aF1260.0
aa(lp1630
F18.52409
aF73.8701408
aF1440.0
aa(lp1631
F18.5249238
aF73.8765667
aF1560.0
aa(lp1632
F18.5231781
aF73.88798659999999
aF1800.0
aa(lp1633
F18.5231786
aF73.88886670000001
aF1860.0
aa(lp1634
F18.5153523
aF73.8944507
aF1980.0
aa(lp1635
F18.5162246
aF73.8965595
aF2040.0
aa(lp1636
F18.5173992
aF73.9030061
aF2160.0
aa(lp1637
F18.5152317
aF73.90563809999999
aF2220.0
aa(lp1638
F18.515066
aF73.90548749999999
aF2280.0
aaa(lp1639
(lp1640
F18.530771
aF73.880763
aF0.0
aa(lp1641
F18.5285332
aF73.8792611
aF60.0
aa(lp1642
F18.5283839
aF73.8762392
aF180.0
aa(lp1643
F18.5307515
aF73.8756569
aF240.0
aa(lp1644
F18.529748
aF73.857365
aF540.0
aa(lp1645
F18.5295399
aF73.85318749999999
aF600.0
aa(lp1646
F18.527542
aF73.8514185
aF660.0
aa(lp1647
F18.5275652
aF73.8507529
aF720.0
aa(lp1648
F18.5297581
aF73.8498142
aF780.0
aa(lp1649
F18.5307446
aF73.8473852
aF840.0
aa(lp1650
F18.5320978
aF73.8428204
aF900.0
aa(lp1651
F18.5385242
aF73.8339481
aF1080.0
aa(lp1652
F18.5410954
aF73.8365896
aF1140.0
aa(lp1653
F18.5411334
aF73.8364388
aF1200.0
aa(lp1654
F18.5433077
aF73.83603529999999
aF1260.0
aa(lp1655
F18.5446314
aF73.8357341
aF1320.0
aaa(lp1656
(lp1657
F18.512463
aF73.856126
aF0.0
aa(lp1658
F18.5124812
aF73.85619559999999
aF60.0
aa(lp1659
F18.5126702
aF73.8559169
aF120.0
aa(lp1660
F18.5134403
aF73.85584910000001
aF180.0
aa(lp1661
F18.513342
aF73.853843
aF300.0
aa(lp1662
F18.5145406
aF73.8537788
aF360.0
aa(lp1663
F18.5128466
aF73.84384519999999
aF660.0
aa(lp1664
F18.5145166
aF73.8423799
aF720.0
aa(lp1665
F18.5068136
aF73.8276525
aF1080.0
aa(lp1666
F18.5066045
aF73.82400559999999
aF1140.0
aa(lp1667
F18.5099437
aF73.8156872
aF1320.0
aa(lp1668
F18.510228
aF73.8158168
aF1380.0
aa(lp1669
F18.5154377
aF73.8153487
aF1500.0
aaa(lp1670
(lp1671
F18.50233
aF73.815889
aF0.0
aa(lp1672
F18.5041852
aF73.8209876
aF120.0
aa(lp1673
F18.5037702
aF73.8213458
aF180.0
aa(lp1674
F18.5045444
aF73.82541239999999
aF240.0
aa(lp1675
F18.5016118
aF73.8267771
aF300.0
aa(lp1676
F18.5024193
aF73.8285768
aF360.0
aa(lp1677
F18.4978436
aF73.8322501
aF480.0
aaa(lp1678
(lp1679
F18.51487
aF73.808803
aF0.0
aa(lp1680
F18.5123698
aF73.8076612
aF60.0
aa(lp1681
F18.5111145
aF73.81563849999999
aF240.0
aa(lp1682
F18.510228
aF73.8158168
aF300.0
aa(lp1683
F18.506003
aF73.8253257
aF480.0
aa(lp1684
F18.5146342
aF73.8423354
aF840.0
aa(lp1685
F18.5128466
aF73.84384519999999
aF900.0
aa(lp1686
F18.5147071
aF73.8455589
aF960.0
aa(lp1687
F18.5151797
aF73.8448446
aF1020.0
aa(lp1688
F18.519942
aF73.84866199999999
aF1080.0
aa(lp1689
F18.5210478
aF73.8535079
aF1140.0
aa(lp1690
F18.5204022
aF73.8537022
aF1200.0
aa(lp1691
F18.5204154
aF73.8541726
aF1260.0
aa(lp1692
F18.5202074
aF73.85449
aF1320.0
aa(lp1693
F18.5215152
aF73.8550826
aF1380.0
aa(lp1694
F18.5278858
aF73.8633753
aF1620.0
aa(lp1695
F18.52409
aF73.8701408
aF1800.0
aa(lp1696
F18.5249238
aF73.8765667
aF1920.0
aa(lp1697
F18.5231781
aF73.88798659999999
aF2160.0
aa(lp1698
F18.5231786
aF73.88886670000001
aF2220.0
aa(lp1699
F18.5297827
aF73.90252699999999
aF2580.0
aa(lp1700
F18.5292392
aF73.9060351
aF2640.0
aa(lp1701
F18.5263796
aF73.9062421
aF2700.0
aa(lp1702
F18.5263725
aF73.9072473
aF2760.0
aa(lp1703
F18.5259302
aF73.9072393
aF2820.0
aaa(lp1704
(lp1705
F18.508864
aF73.799419
aF0.0
aa(lp1706
F18.5076939
aF73.7986643
aF60.0
aa(lp1707
F18.506003
aF73.8253257
aF540.0
aa(lp1708
F18.5086638
aF73.8312572
aF660.0
aa(lp1709
F18.5047046
aF73.8340182
aF780.0
aa(lp1710
F18.5050156
aF73.8397207
aF840.0
aa(lp1711
F18.5049545
aF73.8421579
aF900.0
aa(lp1712
F18.5032673
aF73.8452171
aF1020.0
aa(lp1713
F18.5041486
aF73.8536682
aF1200.0
aa(lp1714
F18.505121
aF73.8535752
aF1260.0
aa(lp1715
F18.5043872
aF73.8548589
aF1320.0
aa(lp1716
F18.5055123
aF73.8556445
aF1380.0
aaa(lp1717
(lp1718
F18.513143
aF73.863811
aF0.0
aa(lp1719
F18.5137942
aF73.8642138
aF60.0
aa(lp1720
F18.5137881
aF73.862836
aF120.0
aa(lp1721
F18.5179973
aF73.8630502
aF300.0
aa(lp1722
F18.5195166
aF73.8624174
aF360.0
aa(lp1723
F18.5185516
aF73.85618939999999
aF540.0
aa(lp1724
F18.5186014
aF73.854552
aF600.0
aa(lp1725
F18.5266668
aF73.85234129999999
aF780.0
aa(lp1726
F18.5297581
aF73.8498142
aF840.0
aa(lp1727
F18.5307446
aF73.8473852
aF900.0
aa(lp1728
F18.5320978
aF73.8428204
aF960.0
aa(lp1729
F18.5407884
aF73.8307769
aF1200.0
aa(lp1730
F18.5420803
aF73.8289324
aF1260.0
aa(lp1731
F18.5450599
aF73.8229564
aF1320.0
aaa(lp1732
(lp1733
F18.525848
aF73.817481
aF0.0
aa(lp1734
F18.5077765
aF73.82313979999999
aF360.0
aa(lp1735
F18.506003
aF73.8253257
aF420.0
aa(lp1736
F18.5086638
aF73.8312572
aF540.0
aa(lp1737
F18.5047046
aF73.8340182
aF660.0
aa(lp1738
F18.5050156
aF73.8397207
aF720.0
aa(lp1739
F18.5049545
aF73.8421579
aF780.0
aa(lp1740
F18.5032673
aF73.8452171
aF900.0
aa(lp1741
F18.504057
aF73.8552754
aF1140.0
aa(lp1742
F18.5010322
aF73.8584927
aF1260.0
aa(lp1743
F18.5009066
aF73.8584794
aF1320.0
aa(lp1744
F18.5005577
aF73.8666047
aF1500.0
aa(lp1745
F18.5019152
aF73.8728198
aF1560.0
aa(lp1746
F18.5028422
aF73.8786532
aF1680.0
aa(lp1747
F18.506985
aF73.8791564
aF1800.0
aa(lp1748
F18.5106289
aF73.88008700000002
aF1860.0
aa(lp1749
F18.5106735
aF73.88151979999999
aF1920.0
aa(lp1750
F18.5100705
aF73.88876619999999
aF2040.0
aa(lp1751
F18.5138074
aF73.8901741
aF2100.0
aaa(lp1752
(lp1753
F18.500985
aF73.821888
aF0.0
aa(lp1754
F18.5008995
aF73.82214259999999
aF60.0
aa(lp1755
F18.5041857
aF73.8211845
aF180.0
aa(lp1756
F18.5146342
aF73.8423354
aF660.0
aa(lp1757
F18.5128466
aF73.84384519999999
aF720.0
aa(lp1758
F18.5147071
aF73.8455589
aF780.0
aa(lp1759
F18.5151797
aF73.8448446
aF840.0
aa(lp1760
F18.519942
aF73.84866199999999
aF900.0
aa(lp1761
F18.5210478
aF73.8535079
aF960.0
aa(lp1762
F18.5204022
aF73.8537022
aF1020.0
aa(lp1763
F18.5204154
aF73.8541726
aF1080.0
aa(lp1764
F18.5202074
aF73.85449
aF1140.0
aa(lp1765
F18.5215152
aF73.8550826
aF1200.0
aa(lp1766
F18.5278858
aF73.8633753
aF1440.0
aa(lp1767
F18.5297274
aF73.8632136
aF1500.0
aa(lp1768
F18.5308132
aF73.8755876
aF1740.0
aa(lp1769
F18.5347475
aF73.87952949999999
aF1860.0
aa(lp1770
F18.5380521
aF73.8854367
aF1980.0
aa(lp1771
F18.5393859
aF73.8853733
aF2040.0
aa(lp1772
F18.539444
aF73.8864716
aF2100.0
aaa(lp1773
(lp1774
F18.512461
aF73.897529
aF0.0
aa(lp1775
F18.5231781
aF73.88798659999999
aF240.0
aa(lp1776
F18.5283225
aF73.88534969999999
aF360.0
aa(lp1777
F18.5412344
aF73.88443149999999
aF600.0
aa(lp1778
F18.5448518
aF73.8832869
aF660.0
aa(lp1779
F18.5574229
aF73.8576768
aF1080.0
aa(lp1780
F18.5549999
aF73.8520679
aF1200.0
aa(lp1781
F18.5543101
aF73.8525465
aF1260.0
aa(lp1782
F18.5519798
aF73.8496309
aF1320.0
aa(lp1783
F18.5503194
aF73.8506046
aF1380.0
aaa(lp1784
(lp1785
F18.529029
aF73.853684
aF0.0
aa(lp1786
F18.5292797
aF73.85277570000001
aF60.0
aa(lp1787
F18.527542
aF73.8514185
aF120.0
aa(lp1788
F18.5275652
aF73.8507529
aF180.0
aa(lp1789
F18.5297581
aF73.8498142
aF240.0
aa(lp1790
F18.5298512
aF73.8511255
aF300.0
aa(lp1791
F18.5303759
aF73.8550638
aF360.0
aa(lp1792
F18.5317982
aF73.8536286
aF420.0
aa(lp1793
F18.5446192
aF73.8768068
aF720.0
aa(lp1794
F18.5452353
aF73.88362149999999
aF840.0
aa(lp1795
F18.5451136
aF73.88477739999999
aF900.0
aa(lp1796
F18.5448717
aF73.88477139999999
aF960.0
aa(lp1797
F18.5416107
aF73.8853852
aF1020.0
aa(lp1798
F18.5393982
aF73.88549669999999
aF1080.0
aa(lp1799
F18.5395748
aF73.8875869
aF1140.0
aa(lp1800
F18.5397282
aF73.88947230000001
aF1200.0
aa(lp1801
F18.5391518
aF73.9036502
aF1440.0
aa(lp1802
F18.5459401
aF73.906003
aF1560.0
aa(lp1803
F18.5457483
aF73.9077047
aF1620.0
aa(lp1804
F18.5430732
aF73.9075308
aF1740.0
aa(lp1805
F18.5430777
aF73.90656419999999
aF1800.0
aa(lp1806
F18.5425986
aF73.90649669999999
aF1860.0
aaa(lp1807
(lp1808
F18.553389
aF73.86503
aF0.0
aa(lp1809
F18.5529798
aF73.868023
aF60.0
aa(lp1810
F18.5515657
aF73.8678335
aF120.0
aa(lp1811
F18.551396
aF73.869428
aF180.0
aa(lp1812
F18.5505373
aF73.8692034
aF240.0
aa(lp1813
F18.5486903
aF73.87124179999999
aF300.0
aa(lp1814
F18.5449989
aF73.8770676
aF420.0
aa(lp1815
F18.531965
aF73.8538019
aF780.0
aa(lp1816
F18.541332
aF73.8512547
aF900.0
aaa(lp1817
(lp1818
F18.547988
aF73.828746
aF0.0
aa(lp1819
F18.547886
aF73.8280844
aF60.0
aa(lp1820
F18.5430614
aF73.828648
aF180.0
aa(lp1821
F18.5423951
aF73.828603
aF240.0
aa(lp1822
F18.539741
aF73.8324402
aF300.0
aa(lp1823
F18.5321747
aF73.8428567
aF480.0
aa(lp1824
F18.5309006
aF73.847217
aF540.0
aa(lp1825
F18.5302272
aF73.849789
aF600.0
aa(lp1826
F18.5298512
aF73.8511255
aF660.0
aa(lp1827
F18.5303759
aF73.8550638
aF720.0
aa(lp1828
F18.5317982
aF73.8536286
aF780.0
aa(lp1829
F18.5413557
aF73.870091
aF1020.0
aa(lp1830
F18.5427835
aF73.8712644
aF1080.0
aa(lp1831
F18.5445499
aF73.87320199999999
aF1140.0
aa(lp1832
F18.5449862
aF73.8725449
aF1200.0
aaa(lp1833
(lp1834
F18.514261
aF73.888384
aF0.0
aa(lp1835
F18.5157492
aF73.88711599999999
aF60.0
aa(lp1836
F18.5183397
aF73.8877167
aF120.0
aa(lp1837
F18.5222723
aF73.885468
aF180.0
aa(lp1838
F18.5232894
aF73.88600550000001
aF240.0
aa(lp1839
F18.5248022
aF73.87683640000002
aF420.0
aa(lp1840
F18.5307515
aF73.8756569
aF600.0
aa(lp1841
F18.5302683
aF73.8551477
aF900.0
aa(lp1842
F18.5490423
aF73.85107889999999
aF1200.0
aa(lp1843
F18.5449782
aF73.840026
aF1380.0
aa(lp1844
F18.5442946
aF73.8405526
aF1440.0
aa(lp1845
F18.5442874
aF73.8416979
aF1500.0
aaa(lp1846
(lp1847
F18.515735
aF73.838968
aF0.0
aa(lp1848
F18.5156705
aF73.83915069999999
aF60.0
aa(lp1849
F18.5160468
aF73.8392459
aF120.0
aa(lp1850
F18.5160049
aF73.8398121
aF180.0
aa(lp1851
F18.5173128
aF73.840107
aF240.0
aa(lp1852
F18.5171137
aF73.84109699999999
aF300.0
aa(lp1853
F18.5174776
aF73.8415892
aF360.0
aa(lp1854
F18.5269352
aF73.84220010000001
aF600.0
aa(lp1855
F18.5280459
aF73.84281250000001
aF660.0
aa(lp1856
F18.5313611
aF73.8446596
aF720.0
aa(lp1857
F18.5385242
aF73.8339481
aF960.0
aa(lp1858
F18.5413485
aF73.8368626
aF1020.0
aa(lp1859
F18.5418042
aF73.8384007
aF1080.0
aaa(lp1860
(lp1861
F18.518746
aF73.902749
aF0.0
aa(lp1862
F18.5162246
aF73.8965595
aF120.0
aa(lp1863
F18.5153523
aF73.8944507
aF180.0
aa(lp1864
F18.5231781
aF73.88798659999999
aF360.0
aa(lp1865
F18.5283225
aF73.88534969999999
aF480.0
aa(lp1866
F18.5283839
aF73.8762392
aF660.0
aa(lp1867
F18.5307515
aF73.8756569
aF720.0
aa(lp1868
F18.529748
aF73.857365
aF1020.0
aa(lp1869
F18.5295399
aF73.85318749999999
aF1080.0
aa(lp1870
F18.5272999
aF73.8511517
aF1140.0
aa(lp1871
F18.522846
aF73.848166
aF1260.0
aa(lp1872
F18.5160815
aF73.8425117
aF1440.0
aa(lp1873
F18.5146961
aF73.84241089999999
aF1500.0
aa(lp1874
F18.5068136
aF73.8276525
aF1860.0
aa(lp1875
F18.5058458
aF73.82554069999999
aF1920.0
aa(lp1876
F18.4985356
aF73.8137911
aF2220.0
aa(lp1877
F18.4985981
aF73.8134534
aF2280.0
aa(lp1878
F18.4987575
aF73.81243429999999
aF2340.0
aa(lp1879
F18.4990449
aF73.8113276
aF2400.0
aa(lp1880
F18.4995765
aF73.8107923
aF2460.0
aaa(lp1881
(lp1882
F18.500944
aF73.847678
aF0.0
aa(lp1883
F18.5011289
aF73.84571919999999
aF60.0
aa(lp1884
F18.5050683
aF73.8448674
aF180.0
aa(lp1885
F18.5048757
aF73.84208269999999
aF240.0
aa(lp1886
F18.5093814
aF73.8420388
aF360.0
aa(lp1887
F18.5116228
aF73.83734369999999
aF480.0
aa(lp1888
F18.5139463
aF73.8361164
aF540.0
aa(lp1889
F18.5153514
aF73.82884
aF720.0
aa(lp1890
F18.5201773
aF73.8304253
aF840.0
aa(lp1891
F18.521399
aF73.8290595
aF900.0
aaa(lp1892
(lp1893
F18.548669
aF73.8889
aF0.0
aa(lp1894
F18.5526351
aF73.88955539999999
aF60.0
aa(lp1895
F18.5528624
aF73.8797049
aF240.0
aa(lp1896
F18.5501375
aF73.8787437
aF300.0
aa(lp1897
F18.531965
aF73.8538019
aF720.0
aa(lp1898
F18.5304493
aF73.8552138
aF780.0
aa(lp1899
F18.5272999
aF73.8511517
aF900.0
aa(lp1900
F18.522846
aF73.848166
aF1020.0
aa(lp1901
F18.5160815
aF73.8425117
aF1200.0
aa(lp1902
F18.5146961
aF73.84241089999999
aF1260.0
aa(lp1903
F18.5068136
aF73.8276525
aF1620.0
aa(lp1904
F18.5066045
aF73.82400559999999
aF1680.0
aa(lp1905
F18.5093531
aF73.8122844
aF1920.0
aa(lp1906
F18.5082906
aF73.81237800000001
aF1980.0
aa(lp1907
F18.5083855
aF73.8134202
aF2040.0
aa(lp1908
F18.5080854
aF73.8134439
aF2100.0
aaa(lp1909
(lp1910
F18.529123
aF73.901172
aF0.0
aa(lp1911
F18.5292011
aF73.9007588
aF60.0
aa(lp1912
F18.528169
aF73.90012589999999
aF120.0
aa(lp1913
F18.5280986
aF73.90026569999999
aF180.0
aa(lp1914
F18.5231261
aF73.8889937
aF480.0
aa(lp1915
F18.5231781
aF73.88798659999999
aF540.0
aa(lp1916
F18.5283225
aF73.88534969999999
aF660.0
aa(lp1917
F18.5393859
aF73.8853733
aF840.0
aa(lp1918
F18.5395748
aF73.8875869
aF900.0
aa(lp1919
F18.5396169
aF73.88818619999999
aF960.0
aa(lp1920
F18.5395044
aF73.8874929
aF1020.0
aaa(lp1921
(lp1922
F18.55031
aF73.869435
aF0.0
aa(lp1923
F18.5486903
aF73.87124179999999
aF60.0
aa(lp1924
F18.5449989
aF73.8770676
aF180.0
aa(lp1925
F18.531965
aF73.8538019
aF540.0
aa(lp1926
F18.5298491
aF73.8632063
aF720.0
aa(lp1927
F18.52409
aF73.8701408
aF960.0
aa(lp1928
F18.524626
aF73.87107859999999
aF1020.0
aa(lp1929
F18.5261566
aF73.8724101
aF1080.0
aaa(lp1930
(lp1931
F18.517093
aF73.833453
aF0.0
aa(lp1932
F18.517824
aF73.83339339999999
aF60.0
aa(lp1933
F18.5176338
aF73.8340525
aF120.0
aa(lp1934
F18.5183216
aF73.8341332
aF180.0
aa(lp1935
F18.5191299
aF73.8303665
aF300.0
aa(lp1936
F18.5201773
aF73.8304253
aF360.0
aa(lp1937
F18.5316742
aF73.8299906
aF600.0
aa(lp1938
F18.5328034
aF73.83420699999999
aF720.0
aa(lp1939
F18.5353509
aF73.8337069
aF780.0
aa(lp1940
F18.5353402
aF73.832982
aF840.0
aaa(lp1941
(lp1942
F18.55777
aF73.901584
aF0.0
aa(lp1943
F18.557303
aF73.9022658
aF60.0
aa(lp1944
F18.556809
aF73.90233549999999
aF120.0
aa(lp1945
F18.557405
aF73.9039717
aF180.0
aa(lp1946
F18.5573418
aF73.9039864
aF240.0
aa(lp1947
F18.5547802
aF73.90458730000002
aF300.0
aa(lp1948
F18.5587667
aF73.9115317
aF420.0
aa(lp1949
F18.5521634
aF73.89659759999999
aF720.0
aa(lp1950
F18.5526312
aF73.8896524
aF840.0
aa(lp1951
F18.5533688
aF73.8830887
aF960.0
aa(lp1952
F18.5519459
aF73.8838639
aF1020.0
aa(lp1953
F18.551867
aF73.8837994
aF1080.0
aa(lp1954
F18.5507264
aF73.88293039999999
aF1140.0
aa(lp1955
F18.5506065
aF73.8828436
aF1200.0
aa(lp1956
F18.54937
aF73.882795
aF1260.0
aa(lp1957
F18.5490839
aF73.8815998
aF1320.0
aa(lp1958
F18.5483806
aF73.88136639999999
aF1380.0
aaa(lp1959
(lp1960
F18.511704
aF73.842585
aF0.0
aa(lp1961
F18.5114657
aF73.8450531
aF60.0
aa(lp1962
F18.5010322
aF73.8584927
aF540.0
aa(lp1963
F18.5009066
aF73.8584794
aF600.0
aa(lp1964
F18.5005577
aF73.8666047
aF780.0
aa(lp1965
F18.5019152
aF73.8728198
aF840.0
aa(lp1966
F18.5028422
aF73.8786532
aF960.0
aa(lp1967
F18.506985
aF73.8791564
aF1080.0
aa(lp1968
F18.5064578
aF73.8841059
aF1200.0
aa(lp1969
F18.4989351
aF73.8958631
aF1440.0
aa(lp1970
F18.50237
aF73.89746269999999
aF1500.0
aa(lp1971
F18.5020156
aF73.89928979999999
aF1560.0
aa(lp1972
F18.500999
aF73.8992462
aF1620.0
aa(lp1973
F18.5009419
aF73.899715
aF1680.0
aaa(lp1974
(lp1975
F18.51935
aF73.84805
aF0.0
aa(lp1976
F18.519942
aF73.84866199999999
aF60.0
aa(lp1977
F18.5210478
aF73.8535079
aF120.0
aa(lp1978
F18.5204022
aF73.8537022
aF180.0
aa(lp1979
F18.5204154
aF73.8541726
aF240.0
aa(lp1980
F18.5202074
aF73.85449
aF300.0
aa(lp1981
F18.5215152
aF73.8550826
aF360.0
aa(lp1982
F18.5278858
aF73.8633753
aF600.0
aa(lp1983
F18.5297274
aF73.8632136
aF660.0
aa(lp1984
F18.5308132
aF73.8755876
aF900.0
aa(lp1985
F18.5347475
aF73.87952949999999
aF1020.0
aa(lp1986
F18.5380521
aF73.8854367
aF1140.0
aa(lp1987
F18.5393859
aF73.8853733
aF1200.0
aa(lp1988
F18.5395748
aF73.8875869
aF1260.0
aa(lp1989
F18.5396169
aF73.88818619999999
aF1320.0
aa(lp1990
F18.5367253
aF73.8880288
aF1380.0
aaa(lp1991
(lp1992
F18.529647
aF73.881162
aF0.0
aa(lp1993
F18.5285332
aF73.8792611
aF60.0
aa(lp1994
F18.5246036
aF73.8787359
aF180.0
aa(lp1995
F18.5248022
aF73.87683640000002
aF240.0
aa(lp1996
F18.5196214
aF73.8754939
aF360.0
aa(lp1997
F18.5204538
aF73.8724976
aF420.0
aa(lp1998
F18.5195651
aF73.8684127
aF480.0
aa(lp1999
F18.5163337
aF73.86863389999999
aF540.0
aaa(lp2000
(lp2001
F18.555879
aF73.856853
aF0.0
aa(lp2002
F18.5570008
aF73.8571288
aF60.0
aa(lp2003
F18.5572148
aF73.8570714
aF120.0
aa(lp2004
F18.5549999
aF73.8520679
aF180.0
aa(lp2005
F18.5543101
aF73.8525465
aF240.0
aa(lp2006
F18.5519798
aF73.8496309
aF300.0
aa(lp2007
F18.5491999
aF73.8511236
aF360.0
aa(lp2008
F18.5449733
aF73.83919829999999
aF540.0
aa(lp2009
F18.5446039
aF73.83882489999999
aF600.0
aa(lp2010
F18.5386332
aF73.8340431
aF720.0
aa(lp2011
F18.5407884
aF73.8307769
aF780.0
aa(lp2012
F18.5418784
aF73.8290671
aF840.0
aa(lp2013
F18.542053
aF73.8284666
aF900.0
aa(lp2014
F18.541076
aF73.82204089999999
aF960.0
aa(lp2015
F18.5359495
aF73.8189982
aF1200.0
aaa(lp2016
(lp2017
F18.535612
aF73.811949
aF0.0
aa(lp2018
F18.5371181
aF73.80962029999999
aF60.0
aa(lp2019
F18.5391537
aF73.809451
aF120.0
aa(lp2020
F18.542234
aF73.8285112
aF420.0
aa(lp2021
F18.539741
aF73.8324402
aF480.0
aa(lp2022
F18.5321747
aF73.8428567
aF660.0
aa(lp2023
F18.5309006
aF73.847217
aF720.0
aa(lp2024
F18.5302272
aF73.849789
aF780.0
aa(lp2025
F18.5298512
aF73.8511255
aF840.0
aa(lp2026
F18.5289163
aF73.8543789
aF900.0
aa(lp2027
F18.528172
aF73.8575135
aF960.0
aa(lp2028
F18.5279973
aF73.8633726
aF1080.0
aa(lp2029
F18.5205921
aF73.87245159999999
aF1320.0
aa(lp2030
F18.5200308
aF73.8711562
aF1380.0
aa(lp2031
F18.5163588
aF73.87131
aF1440.0
aa(lp2032
F18.5163007
aF73.87109699999999
aF1500.0
aa(lp2033
F18.5093748
aF73.87227779999999
aF1680.0
aa(lp2034
F18.5081753
aF73.87531
aF1740.0
aa(lp2035
F18.5065392
aF73.8748006
aF1800.0
aa(lp2036
F18.505889
aF73.8767584
aF1860.0
aaa(lp2037
(lp2038
F18.510007
aF73.804202
aF0.0
aa(lp2039
F18.5102635
aF73.8033547
aF60.0
aa(lp2040
F18.5089552
aF73.8035101
aF120.0
aa(lp2041
F18.5071128
aF73.8036723
aF180.0
aa(lp2042
F18.506003
aF73.8253257
aF600.0
aa(lp2043
F18.5146342
aF73.8423354
aF960.0
aa(lp2044
F18.5128466
aF73.84384519999999
aF1020.0
aa(lp2045
F18.5147071
aF73.8455589
aF1080.0
aa(lp2046
F18.5151797
aF73.8448446
aF1140.0
aa(lp2047
F18.519942
aF73.84866199999999
aF1200.0
aa(lp2048
F18.5210478
aF73.8535079
aF1260.0
aa(lp2049
F18.5204022
aF73.8537022
aF1320.0
aa(lp2050
F18.5204154
aF73.8541726
aF1380.0
aa(lp2051
F18.5202074
aF73.85449
aF1440.0
aa(lp2052
F18.5215152
aF73.8550826
aF1500.0
aa(lp2053
F18.5278858
aF73.8633753
aF1740.0
aa(lp2054
F18.52409
aF73.8701408
aF1920.0
aa(lp2055
F18.5249238
aF73.8765667
aF2040.0
aa(lp2056
F18.5246189
aF73.87861869999999
aF2100.0
aa(lp2057
F18.5270639
aF73.8791288
aF2160.0
aa(lp2058
F18.5270376
aF73.878227
aF2220.0
aaa(lp2059
(lp2060
F18.498901
aF73.83515
aF0.0
aa(lp2061
F18.5001882
aF73.8343319
aF60.0
aa(lp2062
F18.4973255
aF73.8328791
aF120.0
aa(lp2063
F18.5044988
aF73.8350777
aF240.0
aa(lp2064
F18.504643
aF73.8339567
aF300.0
aa(lp2065
F18.5068835
aF73.83227699999999
aF420.0
aa(lp2066
F18.5110801
aF73.8381891
aF600.0
aa(lp2067
F18.5093814
aF73.8420388
aF660.0
aa(lp2068
F18.5095797
aF73.8435159
aF720.0
aa(lp2069
F18.5127814
aF73.84372139999999
aF840.0
aa(lp2070
F18.5147071
aF73.8455589
aF960.0
aa(lp2071
F18.5151797
aF73.8448446
aF1020.0
aa(lp2072
F18.519942
aF73.84866199999999
aF1080.0
aa(lp2073
F18.5210478
aF73.8535079
aF1140.0
aa(lp2074
F18.5204022
aF73.8537022
aF1200.0
aa(lp2075
F18.5204154
aF73.8541726
aF1260.0
aa(lp2076
F18.5202074
aF73.85449
aF1320.0
aa(lp2077
F18.5210137
aF73.8552179
aF1380.0
aa(lp2078
F18.5185516
aF73.85618939999999
aF1440.0
aa(lp2079
F18.5192094
aF73.861538
aF1560.0
aa(lp2080
F18.5160992
aF73.861858
aF1680.0
aa(lp2081
F18.516074
aF73.8637588
aF1740.0
aaa(lp2082
(lp2083
F18.507287
aF73.817374
aF0.0
aa(lp2084
F18.5068664
aF73.8172699
aF60.0
aa(lp2085
F18.5067218
aF73.8165379
aF120.0
aa(lp2086
F18.5060522
aF73.8166682
aF180.0
aa(lp2087
F18.5065828
aF73.8196864
aF240.0
aa(lp2088
F18.5038227
aF73.8204755
aF300.0
aa(lp2089
F18.5069899
aF73.8278806
aF480.0
aa(lp2090
F18.5104833
aF73.829157
aF540.0
aa(lp2091
F18.5106703
aF73.829574
aF600.0
aa(lp2092
F18.5201773
aF73.8304253
aF780.0
aa(lp2093
F18.5399935
aF73.82961139999999
aF1200.0
aa(lp2094
F18.5416175
aF73.829425
aF1260.0
aa(lp2095
F18.5421763
aF73.82863019999999
aF1320.0
aa(lp2096
F18.5437514
aF73.82703149999999
aF1380.0
aa(lp2097
F18.5603
aF73.8148995
aF1620.0
aa(lp2098
F18.5616917
aF73.8139003
aF1680.0
aa(lp2099
F18.5607055
aF73.8146975
aF1740.0
aa(lp2100
F18.5543509
aF73.8194242
aF1860.0
aa(lp2101
F18.5495043
aF73.82301919999999
aF1920.0
aaa(lp2102
(lp2103
F18.510074
aF73.859528
aF0.0
aa(lp2104
F18.5159884
aF73.8593951
aF240.0
aa(lp2105
F18.5186747
aF73.85960589999999
aF300.0
aa(lp2106
F18.5185516
aF73.85618939999999
aF420.0
aa(lp2107
F18.5186014
aF73.854552
aF480.0
aa(lp2108
F18.5266668
aF73.85234129999999
aF660.0
aa(lp2109
F18.5297581
aF73.8498142
aF720.0
aa(lp2110
F18.5298512
aF73.8511255
aF780.0
aa(lp2111
F18.5303759
aF73.8550638
aF840.0
aa(lp2112
F18.5442932
aF73.8516417
aF1080.0
aa(lp2113
F18.5556242
aF73.8615993
aF1320.0
aa(lp2114
F18.5527088
aF73.8650162
aF1380.0
aa(lp2115
F18.5545597
aF73.8623811
aF1440.0
aa(lp2116
F18.5547595
aF73.8620365
aF1500.0
aaa(lp2117
(lp2118
F18.49968
aF73.888281
aF0.0
aa(lp2119
F18.49985
aF73.88670429999999
aF60.0
aa(lp2120
F18.4989336
aF73.8868724
aF120.0
aa(lp2121
F18.4989748
aF73.88501649999999
aF180.0
aa(lp2122
F18.5002526
aF73.8839804
aF240.0
aa(lp2123
F18.4989084
aF73.8801184
aF300.0
aa(lp2124
F18.4995746
aF73.8797763
aF360.0
aa(lp2125
F18.4971639
aF73.8768934
aF420.0
aa(lp2126
F18.4965361
aF73.8620009
aF780.0
aa(lp2127
F18.4957198
aF73.8619763
aF840.0
aa(lp2128
F18.4957362
aF73.86108589999999
aF900.0
aa(lp2129
F18.4947629
aF73.86108329999999
aF960.0
aa(lp2130
F18.4947714
aF73.8600859
aF1020.0
aaa(lp2131
(lp2132
F18.554796
aF73.899776
aF0.0
aa(lp2133
F18.554741
aF73.8986388
aF60.0
aa(lp2134
F18.5546107
aF73.8967898
aF120.0
aa(lp2135
F18.5524694
aF73.8969317
aF180.0
aa(lp2136
F18.5526403
aF73.8975171
aF240.0
aa(lp2137
F18.5448717
aF73.88477139999999
aF480.0
aa(lp2138
F18.5416107
aF73.8853852
aF540.0
aa(lp2139
F18.5352574
aF73.8856752
aF660.0
aa(lp2140
F18.5231781
aF73.88798659999999
aF840.0
aa(lp2141
F18.5231786
aF73.88886670000001
aF900.0
aa(lp2142
F18.5213793
aF73.8909102
aF960.0
aa(lp2143
F18.5102009
aF73.8888924
aF1140.0
aa(lp2144
F18.5064866
aF73.8898713
aF1200.0
aa(lp2145
F18.5064942
aF73.884304
aF1320.0
aa(lp2146
F18.502892
aF73.8788958
aF1500.0
aa(lp2147
F18.5018251
aF73.8727919
aF1620.0
aa(lp2148
F18.5004993
aF73.86669289999999
aF1680.0
aa(lp2149
F18.4999042
aF73.8632839
aF1740.0
aa(lp2150
F18.5027843
aF73.8616037
aF1860.0
aaa(lp2151
(lp2152
F18.519107
aF73.80792
aF0.0
aa(lp2153
F18.5189329
aF73.80810029999999
aF60.0
aa(lp2154
F18.5186653
aF73.80740829999999
aF120.0
aa(lp2155
F18.5123698
aF73.8076612
aF300.0
aa(lp2156
F18.5111145
aF73.81563849999999
aF480.0
aa(lp2157
F18.510228
aF73.8158168
aF540.0
aa(lp2158
F18.506003
aF73.8253257
aF720.0
aa(lp2159
F18.5146342
aF73.8423354
aF1080.0
aa(lp2160
F18.5128466
aF73.84384519999999
aF1140.0
aa(lp2161
F18.5147071
aF73.8455589
aF1200.0
aa(lp2162
F18.5151797
aF73.8448446
aF1260.0
aa(lp2163
F18.519942
aF73.84866199999999
aF1320.0
aa(lp2164
F18.5210478
aF73.8535079
aF1380.0
aa(lp2165
F18.5204022
aF73.8537022
aF1440.0
aa(lp2166
F18.5204154
aF73.8541726
aF1500.0
aa(lp2167
F18.5202074
aF73.85449
aF1560.0
aa(lp2168
F18.5215152
aF73.8550826
aF1620.0
aa(lp2169
F18.5278858
aF73.8633753
aF1860.0
aa(lp2170
F18.52409
aF73.8701408
aF2040.0
aa(lp2171
F18.5249238
aF73.8765667
aF2160.0
aa(lp2172
F18.5231781
aF73.88798659999999
aF2400.0
aa(lp2173
F18.5231786
aF73.88886670000001
aF2460.0
aa(lp2174
F18.5297827
aF73.90252699999999
aF2820.0
aa(lp2175
F18.5292392
aF73.9060351
aF2880.0
aa(lp2176
F18.5290972
aF73.906139
aF2940.0
aa(lp2177
F18.5289696
aF73.9054335
aF3000.0
aaa(lp2178
(lp2179
F18.510404
aF73.829281
aF0.0
aa(lp2180
F18.5106703
aF73.829574
aF60.0
aa(lp2181
F18.5201773
aF73.8304253
aF240.0
aa(lp2182
F18.5193455
aF73.8413089
aF420.0
aa(lp2183
F18.5269352
aF73.84220010000001
aF600.0
aa(lp2184
F18.5280459
aF73.84281250000001
aF660.0
aa(lp2185
F18.5313611
aF73.8446596
aF720.0
aa(lp2186
F18.5302272
aF73.849789
aF840.0
aa(lp2187
F18.5298512
aF73.8511255
aF900.0
aa(lp2188
F18.5303759
aF73.8550638
aF960.0
aa(lp2189
F18.5317982
aF73.8536286
aF1020.0
aa(lp2190
F18.5371776
aF73.86275789999999
aF1140.0
aa(lp2191
F18.5333508
aF73.8604262
aF1260.0
aaa(lp2192
(lp2193
F18.51882
aF73.871647
aF0.0
aa(lp2194
F18.5188756
aF73.87434
aF60.0
aa(lp2195
F18.5199694
aF73.8741288
aF120.0
aa(lp2196
F18.5297274
aF73.8632136
aF480.0
aa(lp2197
F18.529748
aF73.857365
aF600.0
aa(lp2198
F18.5295399
aF73.85318749999999
aF660.0
aa(lp2199
F18.5272999
aF73.8511517
aF720.0
aa(lp2200
F18.522846
aF73.848166
aF840.0
aa(lp2201
F18.5160815
aF73.8425117
aF1020.0
aa(lp2202
F18.5146961
aF73.84241089999999
aF1080.0
aa(lp2203
F18.5068991
aF73.82786150000001
aF1440.0
aa(lp2204
F18.5045444
aF73.82541239999999
aF1500.0
aa(lp2205
F18.5015705
aF73.8267932
aF1620.0
aa(lp2206
F18.5014597
aF73.82652929999999
aF1680.0
aa(lp2207
F18.4980579
aF73.8269943
aF1740.0
aa(lp2208
F18.4981224
aF73.8264769
aF1800.0
aa(lp2209
F18.495738
aF73.8259738
aF1860.0
aa(lp2210
F18.495677
aF73.8262941
aF1920.0
aaa(lp2211
(lp2212
F18.505637
aF73.881959
aF0.0
aa(lp2213
F18.5049343
aF73.88231069999999
aF60.0
aa(lp2214
F18.502892
aF73.8788958
aF120.0
aa(lp2215
F18.5018251
aF73.8727919
aF240.0
aa(lp2216
F18.5004993
aF73.86669289999999
aF300.0
aa(lp2217
F18.5005346
aF73.8585892
aF480.0
aa(lp2218
F18.5013094
aF73.8546829
aF600.0
aa(lp2219
F18.501441
aF73.8542136
aF660.0
aa(lp2220
F18.5054538
aF73.8535806
aF720.0
aa(lp2221
F18.5086936
aF73.8491124
aF900.0
aa(lp2222
F18.5089918
aF73.8490997
aF960.0
aa(lp2223
F18.5091032
aF73.8496629
aF1020.0
aa(lp2224
F18.509484
aF73.8496047
aF1080.0
aaa(lp2225
(lp2226
F18.498256
aF73.807615
aF0.0
aa(lp2227
F18.5000261
aF73.8054819
aF180.0
aa(lp2228
F18.5006949
aF73.8055251
aF240.0
aa(lp2229
F18.5007183
aF73.80487049999999
aF300.0
aa(lp2230
F18.5020636
aF73.8049503
aF360.0
aa(lp2231
F18.5020025
aF73.81065559999999
aF480.0
aa(lp2232
F18.5021209
aF73.8153753
aF600.0
aa(lp2233
F18.5146342
aF73.8423354
aF1200.0
aa(lp2234
F18.5128466
aF73.84384519999999
aF1260.0
aa(lp2235
F18.5147071
aF73.8455589
aF1320.0
aa(lp2236
F18.5151797
aF73.8448446
aF1380.0
aa(lp2237
F18.519942
aF73.84866199999999
aF1440.0
aa(lp2238
F18.5210478
aF73.8535079
aF1500.0
aa(lp2239
F18.5204022
aF73.8537022
aF1560.0
aa(lp2240
F18.5204154
aF73.8541726
aF1620.0
aa(lp2241
F18.5202074
aF73.85449
aF1680.0
aa(lp2242
F18.5215152
aF73.8550826
aF1740.0
aa(lp2243
F18.5278858
aF73.8633753
aF1980.0
aa(lp2244
F18.52409
aF73.8701408
aF2160.0
aa(lp2245
F18.5249238
aF73.8765667
aF2280.0
aa(lp2246
F18.5222823
aF73.87623080000002
aF2340.0
aa(lp2247
F18.5215585
aF73.8775284
aF2400.0
aa(lp2248
F18.520873
aF73.878866
aF2460.0
aa(lp2249
F18.5225891
aF73.8797774
aF2520.0
aaa(lp2250
(lp2251
F18.552674
aF73.872549
aF0.0
aa(lp2252
F18.55252
aF73.87186249999999
aF60.0
aa(lp2253
F18.5498657
aF73.87128609999999
aF120.0
aa(lp2254
F18.5486903
aF73.87124179999999
aF180.0
aa(lp2255
F18.5452353
aF73.88362149999999
aF420.0
aa(lp2256
F18.5451136
aF73.88477739999999
aF480.0
aa(lp2257
F18.5448717
aF73.88477139999999
aF540.0
aa(lp2258
F18.5416107
aF73.8853852
aF600.0
aa(lp2259
F18.5352574
aF73.8856752
aF720.0
aa(lp2260
F18.5231781
aF73.88798659999999
aF900.0
aa(lp2261
F18.5232894
aF73.88600550000001
aF960.0
aa(lp2262
F18.5222723
aF73.885468
aF1020.0
aa(lp2263
F18.5184716
aF73.8833085
aF1080.0
aa(lp2264
F18.5144136
aF73.8835945
aF1140.0
aa(lp2265
F18.5136262
aF73.87879269999999
aF1260.0
aa(lp2266
F18.5139699
aF73.8779666
aF1320.0
aa(lp2267
F18.5128836
aF73.8779026
aF1380.0
aa(lp2268
F18.5127273
aF73.8766721
aF1440.0
aa(lp2269
F18.5125446
aF73.8766177
aF1500.0
aa(lp2270
F18.5120659
aF73.8774554
aF1560.0
aaa(lp2271
(lp2272
F18.498362
aF73.80474
aF0.0
aa(lp2273
F18.5020636
aF73.8049503
aF120.0
aa(lp2274
F18.5020025
aF73.81065559999999
aF240.0
aa(lp2275
F18.5021209
aF73.8153753
aF360.0
aa(lp2276
F18.5069899
aF73.8278806
aF600.0
aa(lp2277
F18.5104833
aF73.829157
aF660.0
aa(lp2278
F18.5106703
aF73.829574
aF720.0
aa(lp2279
F18.5201773
aF73.8304253
aF900.0
aa(lp2280
F18.5408101
aF73.830462
aF1320.0
aa(lp2281
F18.539741
aF73.8324402
aF1380.0
aa(lp2282
F18.5386332
aF73.8340431
aF1440.0
aa(lp2283
F18.5449609
aF73.83880479999999
aF1560.0
aa(lp2284
F18.546592
aF73.8470798
aF1680.0
aa(lp2285
F18.5492948
aF73.8548145
aF1860.0
aa(lp2286
F18.5556242
aF73.8615993
aF1980.0
aa(lp2287
F18.5527088
aF73.8650162
aF2040.0
aa(lp2288
F18.5492888
aF73.8616443
aF2160.0
aaa(lp2289
(lp2290
F18.508902
aF73.825346
aF0.0
aa(lp2291
F18.5107153
aF73.8251666
aF60.0
aa(lp2292
F18.5106703
aF73.829574
aF180.0
aa(lp2293
F18.5084362
aF73.8308409
aF240.0
aa(lp2294
F18.5086638
aF73.8312572
aF300.0
aa(lp2295
F18.5058369
aF73.8328769
aF360.0
aa(lp2296
F18.5023615
aF73.828609
aF480.0
aa(lp2297
F18.4973387
aF73.83284290000002
aF600.0
aa(lp2298
F18.4929595
aF73.829211
aF660.0
aaa(lp2299
(lp2300
F18.512312
aF73.880141
aF0.0
aa(lp2301
F18.510618
aF73.8801718
aF60.0
aa(lp2302
F18.5106735
aF73.88151979999999
aF120.0
aa(lp2303
F18.5139459
aF73.8810215
aF180.0
aa(lp2304
F18.5143691
aF73.88348979999999
aF240.0
aa(lp2305
F18.5184946
aF73.8832259
aF300.0
aa(lp2306
F18.51894
aF73.8823488
aF360.0
aa(lp2307
F18.5232894
aF73.88600550000001
aF480.0
aa(lp2308
F18.5231781
aF73.88798659999999
aF540.0
aa(lp2309
F18.5283225
aF73.88534969999999
aF600.0
aa(lp2310
F18.5393859
aF73.8853733
aF780.0
aa(lp2311
F18.5395748
aF73.8875869
aF840.0
aa(lp2312
F18.5397282
aF73.88947230000001
aF900.0
aa(lp2313
F18.5396216
aF73.8940822
aF960.0
aa(lp2314
F18.5417897
aF73.8934501
aF1080.0
aaa(lp2315
(lp2316
F18.554001
aF73.896101
aF0.0
aa(lp2317
F18.5549075
aF73.89026679999999
aF180.0
aa(lp2318
F18.560392
aF73.8917903
aF240.0
aa(lp2319
F18.5653098
aF73.8778383
aF480.0
aa(lp2320
F18.5582004
aF73.8761739
aF600.0
aa(lp2321
F18.5569965
aF73.8807898
aF720.0
aa(lp2322
F18.5571104
aF73.8810632
aF780.0
aaa(lp2323
(lp2324
F18.493078
aF73.832559
aF0.0
aa(lp2325
F18.4915894
aF73.8335364
aF60.0
aa(lp2326
F18.5012161
aF73.8455985
aF360.0
aa(lp2327
F18.5032673
aF73.8452171
aF420.0
aa(lp2328
F18.5040476
aF73.8473655
aF480.0
aa(lp2329
F18.5106367
aF73.8460231
aF660.0
aa(lp2330
F18.5129708
aF73.8455652
aF780.0
aa(lp2331
F18.5130228
aF73.846245
aF840.0
aaa(lp2332
(lp2333
F18.502599
aF73.837555
aF0.0
aa(lp2334
F18.5032488
aF73.83813219999999
aF60.0
aa(lp2335
F18.5046291
aF73.8381163
aF120.0
aa(lp2336
F18.5049581
aF73.84208129999999
aF180.0
aa(lp2337
F18.5093814
aF73.8420388
aF240.0
aa(lp2338
F18.5095797
aF73.8435159
aF300.0
aa(lp2339
F18.5127814
aF73.84372139999999
aF420.0
aa(lp2340
F18.5147071
aF73.8455589
aF540.0
aa(lp2341
F18.5151797
aF73.8448446
aF600.0
aa(lp2342
F18.519942
aF73.84866199999999
aF660.0
aa(lp2343
F18.5210478
aF73.8535079
aF720.0
aa(lp2344
F18.5226495
aF73.85317429999999
aF780.0
aa(lp2345
F18.5245049
aF73.8525375
aF840.0
aa(lp2346
F18.5248883
aF73.85362909999999
aF900.0
aa(lp2347
F18.5266668
aF73.85234129999999
aF960.0
aa(lp2348
F18.5297581
aF73.8498142
aF1020.0
aa(lp2349
F18.5298512
aF73.8511255
aF1080.0
aa(lp2350
F18.5303759
aF73.8550638
aF1140.0
aa(lp2351
F18.5425933
aF73.8514543
aF1320.0
aa(lp2352
F18.5334774
aF73.8524661
aF1440.0
aa(lp2353
F18.5321527
aF73.8535942
aF1500.0
aa(lp2354
F18.532779
aF73.85452699999999
aF1560.0
aaa(lp2355
(lp2356
F18.553537
aF73.875949
aF0.0
aa(lp2357
F18.5531066
aF73.8754491
aF60.0
aa(lp2358
F18.5525229
aF73.8755035
aF120.0
aa(lp2359
F18.5528286
aF73.87809399999999
aF180.0
aa(lp2360
F18.5527045
aF73.8781096
aF240.0
aa(lp2361
F18.5529344
aF73.87960509999999
aF300.0
aa(lp2362
F18.5501375
aF73.8787437
aF360.0
aa(lp2363
F18.544947
aF73.8771443
aF420.0
aa(lp2364
F18.5452353
aF73.88362149999999
aF540.0
aa(lp2365
F18.5451136
aF73.88477739999999
aF600.0
aa(lp2366
F18.5448717
aF73.88477139999999
aF660.0
aa(lp2367
F18.5416107
aF73.8853852
aF720.0
aa(lp2368
F18.5352574
aF73.8856752
aF840.0
aa(lp2369
F18.5231781
aF73.88798659999999
aF1020.0
aa(lp2370
F18.5231786
aF73.88886670000001
aF1080.0
aa(lp2371
F18.5063716
aF73.9125945
aF1620.0
aa(lp2372
F18.5045536
aF73.91253600000002
aF1680.0
aa(lp2373
F18.5040563
aF73.90536519999999
aF1860.0
aaa(lp2374
(lp2375
F18.546092
aF73.860372
aF0.0
aa(lp2376
F18.5468189
aF73.8624116
aF60.0
aa(lp2377
F18.5484089
aF73.8607581
aF120.0
aa(lp2378
F18.5526211
aF73.8649358
aF180.0
aa(lp2379
F18.5452353
aF73.88362149999999
aF540.0
aa(lp2380
F18.5451136
aF73.88477739999999
aF600.0
aa(lp2381
F18.5448717
aF73.88477139999999
aF660.0
aa(lp2382
F18.5416107
aF73.8853852
aF720.0
aa(lp2383
F18.5352574
aF73.8856752
aF840.0
aa(lp2384
F18.5231781
aF73.88798659999999
aF1020.0
aa(lp2385
F18.5231786
aF73.88886670000001
aF1080.0
aa(lp2386
F18.5213793
aF73.8909102
aF1140.0
aa(lp2387
F18.5102009
aF73.8888924
aF1320.0
aa(lp2388
F18.5064866
aF73.8898713
aF1380.0
aa(lp2389
F18.5064942
aF73.884304
aF1500.0
aa(lp2390
F18.502892
aF73.8788958
aF1680.0
aa(lp2391
F18.4996018
aF73.8798647
aF1740.0
aa(lp2392
F18.4989531
aF73.87787349999999
aF1800.0
aa(lp2393
F18.4995347
aF73.87761739999999
aF1860.0
aa(lp2394
F18.4992005
aF73.8774245
aF1920.0
aaa(lp2395
(lp2396
F18.503232
aF73.806312
aF0.0
aa(lp2397
F18.5021674
aF73.80587160000002
aF60.0
aa(lp2398
F18.5020025
aF73.81065559999999
aF180.0
aa(lp2399
F18.5021209
aF73.8153753
aF300.0
aa(lp2400
F18.5069899
aF73.8278806
aF540.0
aa(lp2401
F18.5104833
aF73.829157
aF600.0
aa(lp2402
F18.5106703
aF73.829574
aF660.0
aa(lp2403
F18.5201773
aF73.8304253
aF840.0
aa(lp2404
F18.5408101
aF73.830462
aF1260.0
aa(lp2405
F18.539741
aF73.8324402
aF1320.0
aa(lp2406
F18.5386332
aF73.8340431
aF1380.0
aa(lp2407
F18.5449609
aF73.83880479999999
aF1500.0
aa(lp2408
F18.5449989
aF73.8433002
aF1560.0
aa(lp2409
F18.5543099
aF73.8432906
aF1680.0
aa(lp2410
F18.5545496
aF73.8446764
aF1740.0
aa(lp2411
F18.5565977
aF73.8442895
aF1800.0
aa(lp2412
F18.556867
aF73.84508079999999
aF1860.0
aaa(lp2413
(lp2414
F18.509036
aF73.807125
aF0.0
aa(lp2415
F18.5084187
aF73.8063119
aF60.0
aa(lp2416
F18.5073265
aF73.8061836
aF120.0
aa(lp2417
F18.506003
aF73.8253257
aF480.0
aa(lp2418
F18.5069899
aF73.8278806
aF540.0
aa(lp2419
F18.5104833
aF73.829157
aF600.0
aa(lp2420
F18.5106703
aF73.829574
aF660.0
aa(lp2421
F18.5201773
aF73.8304253
aF840.0
aa(lp2422
F18.5408101
aF73.830462
aF1260.0
aa(lp2423
F18.539741
aF73.8324402
aF1320.0
aa(lp2424
F18.5386332
aF73.8340431
aF1380.0
aa(lp2425
F18.5449609
aF73.83880479999999
aF1500.0
aa(lp2426
F18.546592
aF73.8470798
aF1620.0
aa(lp2427
F18.5466298
aF73.8468607
aF1680.0
aa(lp2428
F18.547475
aF73.84664169999999
aF1740.0
aaa(lp2429
(lp2430
F18.515424
aF73.848225
aF0.0
aa(lp2431
F18.5153635
aF73.85008309999999
aF60.0
aa(lp2432
F18.5163892
aF73.8500363
aF120.0
aa(lp2433
F18.5196419
aF73.8496062
aF180.0
aa(lp2434
F18.522052
aF73.8492569
aF240.0
aa(lp2435
F18.5255563
aF73.85704609999999
aF480.0
aa(lp2436
F18.5271698
aF73.8559713
aF540.0
aa(lp2437
F18.5280835
aF73.8575211
aF600.0
aa(lp2438
F18.5279973
aF73.8633726
aF720.0
aa(lp2439
F18.52409
aF73.8701408
aF900.0
aa(lp2440
F18.5249238
aF73.8765667
aF1020.0
aa(lp2441
F18.5222823
aF73.87623080000002
aF1080.0
aa(lp2442
F18.5215585
aF73.8775284
aF1140.0
aa(lp2443
F18.521043
aF73.87854349999999
aF1200.0
aa(lp2444
F18.5210507
aF73.87835679999999
aF1260.0
aaa(lp2445
(lp2446
F18.50072
aF73.839801
aF0.0
aa(lp2447
F18.5006226
aF73.8391333
aF60.0
aa(lp2448
F18.503338
aF73.8388334
aF120.0
aa(lp2449
F18.5045711
aF73.8388745
aF180.0
aa(lp2450
F18.5049581
aF73.84208129999999
aF240.0
aa(lp2451
F18.5093814
aF73.8420388
aF300.0
aa(lp2452
F18.5116228
aF73.83734369999999
aF420.0
aa(lp2453
F18.5139463
aF73.8361164
aF480.0
aa(lp2454
F18.5153514
aF73.82884
aF660.0
aa(lp2455
F18.5201773
aF73.8304253
aF780.0
aa(lp2456
F18.5408101
aF73.830462
aF1200.0
aa(lp2457
F18.539741
aF73.8324402
aF1260.0
aa(lp2458
F18.5386332
aF73.8340431
aF1320.0
aa(lp2459
F18.5498363
aF73.8395913
aF1560.0
aa(lp2460
F18.5499207
aF73.8384888
aF1620.0
aaa(lp2461
(lp2462
F18.510325
aF73.829678
aF0.0
aa(lp2463
F18.5084362
aF73.8308409
aF60.0
aa(lp2464
F18.5101201
aF73.8340192
aF180.0
aa(lp2465
F18.5142999
aF73.8337672
aF300.0
aa(lp2466
F18.5153514
aF73.82884
aF420.0
aa(lp2467
F18.5201773
aF73.8304253
aF540.0
aa(lp2468
F18.5399935
aF73.82961139999999
aF960.0
aa(lp2469
F18.5416175
aF73.829425
aF1020.0
aa(lp2470
F18.5421763
aF73.82863019999999
aF1080.0
aa(lp2471
F18.5437514
aF73.82703149999999
aF1140.0
aa(lp2472
F18.5577165
aF73.8168848
aF1320.0
aa(lp2473
F18.5576403
aF73.8153288
aF1380.0
aa(lp2474
F18.5559225
aF73.8152996
aF1440.0
aa(lp2475
F18.5559427
aF73.8146825
aF1500.0
aa(lp2476
F18.5553735
aF73.8146107
aF1560.0
aa(lp2477
F18.5553605
aF73.8138365
aF1620.0
aa(lp2478
F18.5578386
aF73.8139286
aF1680.0
aaa(lp2479
(lp2480
F18.50649
aF73.897218
aF0.0
aa(lp2481
F18.5072633
aF73.8980206
aF60.0
aa(lp2482
F18.5231781
aF73.88798659999999
aF360.0
aa(lp2483
F18.5283225
aF73.88534969999999
aF480.0
aa(lp2484
F18.5283839
aF73.8762392
aF660.0
aa(lp2485
F18.5307515
aF73.8756569
aF720.0
aa(lp2486
F18.529748
aF73.857365
aF1020.0
aa(lp2487
F18.5295399
aF73.85318749999999
aF1080.0
aa(lp2488
F18.5272999
aF73.8511517
aF1140.0
aa(lp2489
F18.5238668
aF73.8488325
aF1200.0
aa(lp2490
F18.52423
aF73.8480806
aF1260.0
aa(lp2491
F18.5234586
aF73.847661
aF1320.0
aaa(lp2492
(lp2493
F18.494214
aF73.855136
aF0.0
aa(lp2494
F18.4942311
aF73.85484559999999
aF60.0
aa(lp2495
F18.4958319
aF73.8550144
aF120.0
aa(lp2496
F18.4958706
aF73.8545075
aF180.0
aa(lp2497
F18.4969985
aF73.8546223
aF240.0
aa(lp2498
F18.4971592
aF73.85409700000001
aF300.0
aa(lp2499
F18.4993467
aF73.8538758
aF360.0
aa(lp2500
F18.495223
aF73.8375204
aF660.0
aa(lp2501
F18.4939123
aF73.839499
aF720.0
aa(lp2502
F18.4932417
aF73.8393349
aF780.0
aaa(lp2503
(lp2504
F18.550915
aF73.873013
aF0.0
aa(lp2505
F18.5486903
aF73.87124179999999
aF60.0
aa(lp2506
F18.5574229
aF73.8576768
aF240.0
aa(lp2507
F18.5549999
aF73.8520679
aF360.0
aa(lp2508
F18.5543101
aF73.8525465
aF420.0
aa(lp2509
F18.5519798
aF73.8496309
aF480.0
aa(lp2510
F18.5574347
aF73.84649399999999
aF600.0
aa(lp2511
F18.5565977
aF73.8442895
aF660.0
aa(lp2512
F18.5616031
aF73.8411859
aF720.0
aa(lp2513
F18.5616334
aF73.84053639999999
aF780.0
aa(lp2514
F18.5545055
aF73.8275927
aF1020.0
aa(lp2515
F18.5501583
aF73.8275754
aF1140.0
aa(lp2516
F18.547886
aF73.8280844
aF1200.0
aa(lp2517
F18.5485789
aF73.82997
aF1260.0
aaa(lp2518
(lp2519
F18.507501
aF73.865978
aF0.0
aa(lp2520
F18.5069643
aF73.8657891
aF60.0
aa(lp2521
F18.507376
aF73.87231430000001
aF240.0
aa(lp2522
F18.5093748
aF73.87227779999999
aF300.0
aa(lp2523
F18.506985
aF73.8791564
aF540.0
aa(lp2524
F18.5136808
aF73.8798463
aF660.0
aa(lp2525
F18.5140343
aF73.88456099999999
aF780.0
aa(lp2526
F18.5165011
aF73.8846512
aF900.0
aa(lp2527
F18.5164946
aF73.8857586
aF960.0
aaa(lp2528
(lp2529
F18.545137
aF73.871907
aF0.0
aa(lp2530
F18.5433104
aF73.8705203
aF60.0
aa(lp2531
F18.5427835
aF73.8712644
aF120.0
aa(lp2532
F18.5413557
aF73.870091
aF180.0
aa(lp2533
F18.5446192
aF73.8768068
aF300.0
aa(lp2534
F18.5452353
aF73.88362149999999
aF420.0
aa(lp2535
F18.5451136
aF73.88477739999999
aF480.0
aa(lp2536
F18.5448717
aF73.88477139999999
aF540.0
aa(lp2537
F18.5416107
aF73.8853852
aF600.0
aa(lp2538
F18.5352574
aF73.8856752
aF720.0
aa(lp2539
F18.5231781
aF73.88798659999999
aF900.0
aa(lp2540
F18.5231786
aF73.88886670000001
aF960.0
aa(lp2541
F18.5165088
aF73.8938076
aF1080.0
aa(lp2542
F18.5159691
aF73.89312699999999
aF1140.0
aaa(lp2543
(lp2544
F18.556742
aF73.820026
aF0.0
aa(lp2545
F18.557472
aF73.81805899999999
aF60.0
aa(lp2546
F18.5582247
aF73.8174633
aF120.0
aa(lp2547
F18.5577989
aF73.8169435
aF180.0
aa(lp2548
F18.5423951
aF73.828603
aF420.0
aa(lp2549
F18.539741
aF73.8324402
aF540.0
aa(lp2550
F18.5321747
aF73.8428567
aF720.0
aa(lp2551
F18.5309006
aF73.847217
aF780.0
aa(lp2552
F18.5302272
aF73.849789
aF840.0
aa(lp2553
F18.5298512
aF73.8511255
aF900.0
aa(lp2554
F18.5303759
aF73.8550638
aF960.0
aa(lp2555
F18.5298491
aF73.8632063
aF1080.0
aa(lp2556
F18.5308132
aF73.8755876
aF1260.0
aa(lp2557
F18.5347475
aF73.87952949999999
aF1380.0
aa(lp2558
F18.5336779
aF73.87889679999999
aF1440.0
aa(lp2559
F18.5304377
aF73.8792253
aF1500.0
aaa(lp2560
(lp2561
F18.528223
aF73.890456
aF0.0
aa(lp2562
F18.5285486
aF73.8918601
aF60.0
aa(lp2563
F18.5266399
aF73.8916662
aF120.0
aa(lp2564
F18.5250028
aF73.8932907
aF180.0
aa(lp2565
F18.5231261
aF73.8889937
aF240.0
aa(lp2566
F18.5231781
aF73.88798659999999
aF300.0
aa(lp2567
F18.5283225
aF73.88534969999999
aF420.0
aa(lp2568
F18.5393859
aF73.8853733
aF600.0
aa(lp2569
F18.5395748
aF73.8875869
aF660.0
aa(lp2570
F18.5397282
aF73.88947230000001
aF720.0
aa(lp2571
F18.5392663
aF73.9002295
aF900.0
aa(lp2572
F18.5381334
aF73.9001106
aF960.0
aaa(lp2573
(lp2574
F18.519584
aF73.809418
aF0.0
aa(lp2575
F18.5196164
aF73.8092879
aF60.0
aa(lp2576
F18.5191592
aF73.80924759999999
aF120.0
aa(lp2577
F18.5186653
aF73.80740829999999
aF180.0
aa(lp2578
F18.5123698
aF73.8076612
aF360.0
aa(lp2579
F18.5111145
aF73.81563849999999
aF540.0
aa(lp2580
F18.510228
aF73.8158168
aF600.0
aa(lp2581
F18.506003
aF73.8253257
aF780.0
aa(lp2582
F18.5069899
aF73.8278806
aF840.0
aa(lp2583
F18.5104833
aF73.829157
aF900.0
aa(lp2584
F18.5106703
aF73.829574
aF960.0
aa(lp2585
F18.5201773
aF73.8304253
aF1140.0
aa(lp2586
F18.5252281
aF73.829627
aF1260.0
aa(lp2587
F18.5238948
aF73.82707359999999
aF1320.0
aa(lp2588
F18.5248848
aF73.82693929999999
aF1380.0
aa(lp2589
F18.5249057
aF73.8249417
aF1440.0
aa(lp2590
F18.5255916
aF73.8248742
aF1500.0
aaa(lp2591
(lp2592
F18.54995
aF73.888875
aF0.0
aa(lp2593
F18.5495161
aF73.88837819999999
aF60.0
aa(lp2594
F18.5500455
aF73.8883087
aF120.0
aa(lp2595
F18.5500288
aF73.8878825
aF180.0
aa(lp2596
F18.5507398
aF73.8878761
aF240.0
aa(lp2597
F18.5507886
aF73.8878062
aF300.0
aa(lp2598
F18.5527793
aF73.8880684
aF360.0
aa(lp2599
F18.5521334
aF73.873398
aF540.0
aa(lp2600
F18.5486903
aF73.87124179999999
aF600.0
aa(lp2601
F18.5545597
aF73.8623811
aF720.0
aa(lp2602
F18.5492447
aF73.85489350000002
aF840.0
aa(lp2603
F18.5490823
aF73.8511764
aF900.0
aa(lp2604
F18.5449733
aF73.83919829999999
aF1080.0
aa(lp2605
F18.5446039
aF73.83882489999999
aF1140.0
aa(lp2606
F18.5386332
aF73.8340431
aF1260.0
aa(lp2607
F18.5407884
aF73.8307769
aF1320.0
aa(lp2608
F18.5418784
aF73.8290671
aF1380.0
aa(lp2609
F18.542053
aF73.8284666
aF1440.0
aa(lp2610
F18.5398333
aF73.8152732
aF1560.0
aa(lp2611
F18.5430037
aF73.8134367
aF1680.0
aa(lp2612
F18.5436074
aF73.81342409999999
aF1740.0
aaa(lp2613
(lp2614
F18.549192
aF73.830906
aF0.0
aa(lp2615
F18.547886
aF73.8280844
aF60.0
aa(lp2616
F18.5430614
aF73.828648
aF180.0
aa(lp2617
F18.5423951
aF73.828603
aF240.0
aa(lp2618
F18.539741
aF73.8324402
aF300.0
aa(lp2619
F18.5321747
aF73.8428567
aF480.0
aa(lp2620
F18.5309006
aF73.847217
aF540.0
aa(lp2621
F18.5302272
aF73.849789
aF600.0
aa(lp2622
F18.5298512
aF73.8511255
aF660.0
aa(lp2623
F18.5303759
aF73.8550638
aF720.0
aa(lp2624
F18.5317982
aF73.8536286
aF780.0
aa(lp2625
F18.5446192
aF73.8768068
aF1080.0
aa(lp2626
F18.5452353
aF73.88362149999999
aF1200.0
aa(lp2627
F18.5451136
aF73.88477739999999
aF1260.0
aa(lp2628
F18.5448717
aF73.88477139999999
aF1320.0
aa(lp2629
F18.5416107
aF73.8853852
aF1380.0
aa(lp2630
F18.5393982
aF73.88549669999999
aF1440.0
aa(lp2631
F18.5395748
aF73.8875869
aF1500.0
aa(lp2632
F18.5397282
aF73.88947230000001
aF1560.0
aa(lp2633
F18.5396684
aF73.8931496
aF1620.0
aa(lp2634
F18.5368036
aF73.89232470000002
aF1680.0
aaa(lp2635
(lp2636
F18.525346
aF73.860692
aF0.0
aa(lp2637
F18.525372
aF73.8600591
aF60.0
aa(lp2638
F18.5278858
aF73.8633753
aF180.0
aa(lp2639
F18.5297274
aF73.8632136
aF240.0
aa(lp2640
F18.529748
aF73.857365
aF360.0
aa(lp2641
F18.5295399
aF73.85318749999999
aF420.0
aa(lp2642
F18.527542
aF73.8514185
aF480.0
aa(lp2643
F18.5275652
aF73.8507529
aF540.0
aa(lp2644
F18.5297581
aF73.8498142
aF600.0
aa(lp2645
F18.5307446
aF73.8473852
aF660.0
aa(lp2646
F18.5320978
aF73.8428204
aF720.0
aa(lp2647
F18.5407884
aF73.8307769
aF960.0
aa(lp2648
F18.5420803
aF73.8289324
aF1020.0
aa(lp2649
F18.551125
aF73.8049005
aF1320.0
aa(lp2650
F18.5503822
aF73.80483389999999
aF1380.0
aaa(lp2651
(lp2652
F18.517643
aF73.853777
aF0.0
aa(lp2653
F18.5175691
aF73.8539524
aF60.0
aa(lp2654
F18.5186014
aF73.854552
aF120.0
aa(lp2655
F18.5215152
aF73.8550826
aF180.0
aa(lp2656
F18.5278858
aF73.8633753
aF420.0
aa(lp2657
F18.52409
aF73.8701408
aF600.0
aa(lp2658
F18.5249238
aF73.8765667
aF720.0
aa(lp2659
F18.5246189
aF73.87861869999999
aF780.0
aa(lp2660
F18.5285326
aF73.8791542
aF840.0
aa(lp2661
F18.5284457
aF73.88524319999999
aF960.0
aa(lp2662
F18.5295933
aF73.88542120000001
aF1020.0
aaa.